---
triple:          'arm64-apple-darwin'
binary-path:     '/Users/leonidmarkevic/Desktop/labs/Computer networks labs c++/lab3/client'
relocations:
  - { offsetInCU: 0xC352, offset: 0xC352, size: 0x8, addend: 0x0, symName: __ZStL8__ioinit, symObjAddr: 0x66F70, symBinAddr: 0x100010004, symSize: 0x0 }
  - { offsetInCU: 0xC6BF, offset: 0xC6BF, size: 0x8, addend: 0x0, symName: _client_running, symObjAddr: 0x4AA8, symBinAddr: 0x100010000, symSize: 0x0 }
  - { offsetInCU: 0xC6D5, offset: 0xC6D5, size: 0x8, addend: 0x0, symName: _server_socket, symObjAddr: 0x66F78, symBinAddr: 0x100010008, symSize: 0x0 }
  - { offsetInCU: 0xC6FA, offset: 0xC6FA, size: 0x8, addend: 0x0, symName: __Z8usernameB5cxx11, symObjAddr: 0x66F80, symBinAddr: 0x100010010, symSize: 0x0 }
  - { offsetInCU: 0xCECF, offset: 0xCECF, size: 0x8, addend: 0x0, symName: __ZNSt10_Head_baseILm0EPFvvELb0EE7_M_headERS2_, symObjAddr: 0x4538, symBinAddr: 0x100007850, symSize: 0x14 }
  - { offsetInCU: 0xCEFC, offset: 0xCEFC, size: 0x8, addend: 0x0, symName: __ZNSt11_Tuple_implILm0EJPFvvEEE7_M_headERS2_, symObjAddr: 0x451C, symBinAddr: 0x100007834, symSize: 0x1C }
  - { offsetInCU: 0xCF2B, offset: 0xCF2B, size: 0x8, addend: 0x0, symName: __ZSt13__invoke_implIvPFvvEJEET_St14__invoke_otherOT0_DpOT1_, symObjAddr: 0x44F0, symBinAddr: 0x100007808, symSize: 0x2C }
  - { offsetInCU: 0xCF80, offset: 0xCF80, size: 0x8, addend: 0x0, symName: __ZSt7forwardIPFvvEEOT_RNSt16remove_referenceIS2_E4typeE, symObjAddr: 0x44DC, symBinAddr: 0x1000077F4, symSize: 0x14 }
  - { offsetInCU: 0xCFB6, offset: 0xCFB6, size: 0x8, addend: 0x0, symName: __ZSt12__get_helperILm0EPFvvEJEERT0_RSt11_Tuple_implIXT_EJS2_DpT1_EE, symObjAddr: 0x44C0, symBinAddr: 0x1000077D8, symSize: 0x1C }
  - { offsetInCU: 0xCFF7, offset: 0xCFF7, size: 0x8, addend: 0x0, symName: __ZSt8__invokeIPFvvEJEENSt15__invoke_resultIT_JDpT0_EE4typeEOS3_DpOS4_, symObjAddr: 0x448C, symBinAddr: 0x1000077A4, symSize: 0x34 }
  - { offsetInCU: 0xD039, offset: 0xD039, size: 0x8, addend: 0x0, symName: __ZSt3getILm0EJPFvvEEEONSt13tuple_elementIXT_ESt5tupleIJDpT0_EEE4typeEOS6_, symObjAddr: 0x446C, symBinAddr: 0x100007784, symSize: 0x20 }
  - { offsetInCU: 0xD07E, offset: 0xD07E, size: 0x8, addend: 0x0, symName: __ZSt4moveIRSt5tupleIJPFvvEEEEONSt16remove_referenceIT_E4typeEOS6_, symObjAddr: 0x4458, symBinAddr: 0x100007770, symSize: 0x14 }
  - { offsetInCU: 0xD0B4, offset: 0xD0B4, size: 0x8, addend: 0x0, symName: __ZNSt6thread8_InvokerISt5tupleIJPFvvEEEE9_M_invokeIJLm0EEEEvSt12_Index_tupleIJXspT_EEE, symObjAddr: 0x442C, symBinAddr: 0x100007744, symSize: 0x2C }
  - { offsetInCU: 0xD0F7, offset: 0xD0F7, size: 0x8, addend: 0x0, symName: __ZNSt6thread8_InvokerISt5tupleIJPFvvEEEEclEv, symObjAddr: 0x440C, symBinAddr: 0x100007724, symSize: 0x20 }
  - { offsetInCU: 0xD121, offset: 0xD121, size: 0x8, addend: 0x0, symName: __ZNSt6thread11_State_implINS_8_InvokerISt5tupleIJPFvvEEEEEE6_M_runEv, symObjAddr: 0x43E8, symBinAddr: 0x100007700, symSize: 0x24 }
  - { offsetInCU: 0xD1AE, offset: 0xD1AE, size: 0x8, addend: 0x0, symName: __ZNSt6thread11_State_implINS_8_InvokerISt5tupleIJPFvvEEEEEED0Ev, symObjAddr: 0x43C0, symBinAddr: 0x1000076D8, symSize: 0x28 }
  - { offsetInCU: 0xD1D8, offset: 0xD1D8, size: 0x8, addend: 0x0, symName: __ZNSt6thread11_State_implINS_8_InvokerISt5tupleIJPFvvEEEEEED1Ev, symObjAddr: 0x438C, symBinAddr: 0x1000076A4, symSize: 0x34 }
  - { offsetInCU: 0xD1BE, offset: 0xD1BE, size: 0x8, addend: 0x0, symName: __ZNSt10_Head_baseILm0ERKNSt7__cxx1112basic_stringIcSt11char_traitsIcESaIcEEELb0EE7_M_headERS8_, symObjAddr: 0x4374, symBinAddr: 0x10000768C, symSize: 0x18 }
  - { offsetInCU: 0xD1E7, offset: 0xD1E7, size: 0x8, addend: 0x0, symName: __ZNSt11_Tuple_implILm0EJRKNSt7__cxx1112basic_stringIcSt11char_traitsIcESaIcEEEEE7_M_headERS8_, symObjAddr: 0x4358, symBinAddr: 0x100007670, symSize: 0x1C }
  - { offsetInCU: 0xD211, offset: 0xD211, size: 0x8, addend: 0x0, symName: __ZSt12__get_helperILm0ERKNSt7__cxx1112basic_stringIcSt11char_traitsIcESaIcEEEJEERT0_RSt11_Tuple_implIXT_EJS8_DpT1_EE, symObjAddr: 0x433C, symBinAddr: 0x100007654, symSize: 0x1C }
  - { offsetInCU: 0xD259, offset: 0xD259, size: 0x8, addend: 0x0, symName: __ZSt7forwardIRKNSt7__cxx1112basic_stringIcSt11char_traitsIcESaIcEEEEOT_RNSt16remove_referenceIS8_E4typeE, symObjAddr: 0x4328, symBinAddr: 0x100007640, symSize: 0x14 }
  - { offsetInCU: 0xD28B, offset: 0xD28B, size: 0x8, addend: 0x0, symName: __ZSt3getILm0EJRKNSt7__cxx1112basic_stringIcSt11char_traitsIcESaIcEEEEERNSt13tuple_elementIXT_ESt5tupleIJDpT0_EEE4typeERSC_, symObjAddr: 0x430C, symBinAddr: 0x100007624, symSize: 0x1C }
  - { offsetInCU: 0xD3FE, offset: 0xD3FE, size: 0x8, addend: 0x0, symName: __ZNSt4pairIKNSt7__cxx1112basic_stringIcSt11char_traitsIcESaIcEEEbEC1IJRS6_EJLm0EEJEJEEERSt5tupleIJDpT_EERSA_IJDpT1_EESt12_Index_tupleIJXspT0_EEESJ_IJXspT2_EEE, symObjAddr: 0x42B8, symBinAddr: 0x1000075D0, symSize: 0x54 }
  - { offsetInCU: 0xD3D2, offset: 0xD3D2, size: 0x8, addend: 0x0, symName: __ZNSt10_Head_baseILm1ESt14default_deleteINSt6thread6_StateEELb1EE7_M_headERS4_, symObjAddr: 0x42A4, symBinAddr: 0x1000075BC, symSize: 0x14 }
  - { offsetInCU: 0xD50E, offset: 0xD50E, size: 0x8, addend: 0x0, symName: __ZNSt4pairIKNSt7__cxx1112basic_stringIcSt11char_traitsIcESaIcEEEbEC1IJRS6_EJEEESt21piecewise_construct_tSt5tupleIJDpT_EESB_IJDpT0_EE, symObjAddr: 0x4268, symBinAddr: 0x100007580, symSize: 0x3C }
  - { offsetInCU: 0xD55B, offset: 0xD55B, size: 0x8, addend: 0x0, symName: __ZNSt11_Tuple_implILm0EJRKNSt7__cxx1112basic_stringIcSt11char_traitsIcESaIcEEEEEC2EOS8_, symObjAddr: 0x4240, symBinAddr: 0x100007558, symSize: 0x28 }
  - { offsetInCU: 0xD532, offset: 0xD532, size: 0x8, addend: 0x0, symName: __ZNSt11_Tuple_implILm1EJSt14default_deleteINSt6thread6_StateEEEE7_M_headERS4_, symObjAddr: 0x4224, symBinAddr: 0x10000753C, symSize: 0x1C }
  - { offsetInCU: 0xD55C, offset: 0xD55C, size: 0x8, addend: 0x0, symName: __ZNSt10_Head_baseILm0EPNSt6thread6_StateELb0EE7_M_headERS3_, symObjAddr: 0x4210, symBinAddr: 0x100007528, symSize: 0x14 }
  - { offsetInCU: 0xD5E5, offset: 0xD5E5, size: 0x8, addend: 0x0, symName: __ZNSt10_Head_baseILm1ESt14default_deleteINSt6thread6_StateEELb1EEC2Ev, symObjAddr: 0x41FC, symBinAddr: 0x100007514, symSize: 0x14 }
  - { offsetInCU: 0xD5C5, offset: 0xD5C5, size: 0x8, addend: 0x0, symName: __ZSt19__relocate_object_aI10ServerInfoS0_SaIS0_EEvPT_PT0_RT1_, symObjAddr: 0x412C, symBinAddr: 0x100007444, symSize: 0xD0 }
  - { offsetInCU: 0xD716, offset: 0xD716, size: 0x8, addend: 0x0, symName: __ZNK9__gnu_cxx16__aligned_membufISt4pairIKNSt7__cxx1112basic_stringIcSt11char_traitsIcESaIcEEEbEE7_M_addrEv, symObjAddr: 0x4118, symBinAddr: 0x100007430, symSize: 0x14 }
  - { offsetInCU: 0xD809, offset: 0xD809, size: 0x8, addend: 0x0, symName: __ZNSt5tupleIJRKNSt7__cxx1112basic_stringIcSt11char_traitsIcESaIcEEEEEC1EOS8_, symObjAddr: 0x40F0, symBinAddr: 0x100007408, symSize: 0x28 }
  - { offsetInCU: 0xD7EF, offset: 0xD7EF, size: 0x8, addend: 0x0, symName: __ZNSt15__new_allocatorISt13_Rb_tree_nodeISt4pairIKNSt7__cxx1112basic_stringIcSt11char_traitsIcESaIcEEEbEEE8allocateEmPKv, symObjAddr: 0x4058, symBinAddr: 0x100007370, symSize: 0x98 }
  - { offsetInCU: 0xD877, offset: 0xD877, size: 0x8, addend: 0x0, symName: __ZSt12__get_helperILm1ESt14default_deleteINSt6thread6_StateEEJEERT0_RSt11_Tuple_implIXT_EJS4_DpT1_EE, symObjAddr: 0x403C, symBinAddr: 0x100007354, symSize: 0x1C }
  - { offsetInCU: 0xD8B9, offset: 0xD8B9, size: 0x8, addend: 0x0, symName: __ZNSt11_Tuple_implILm0EJPNSt6thread6_StateESt14default_deleteIS1_EEE7_M_headERS5_, symObjAddr: 0x4020, symBinAddr: 0x100007338, symSize: 0x1C }
  - { offsetInCU: 0xD930, offset: 0xD930, size: 0x8, addend: 0x0, symName: __ZNSt10_Head_baseILm0EPNSt6thread6_StateELb0EEC2Ev, symObjAddr: 0x4004, symBinAddr: 0x10000731C, symSize: 0x1C }
  - { offsetInCU: 0xD982, offset: 0xD982, size: 0x8, addend: 0x0, symName: __ZNSt11_Tuple_implILm1EJSt14default_deleteINSt6thread6_StateEEEEC2Ev, symObjAddr: 0x3FE4, symBinAddr: 0x1000072FC, symSize: 0x20 }
  - { offsetInCU: 0xD9B3, offset: 0xD9B3, size: 0x8, addend: 0x0, symName: __ZNSt10_Head_baseILm0EPFvvELb0EEC2ERKS1_, symObjAddr: 0x3FBC, symBinAddr: 0x1000072D4, symSize: 0x28 }
  - { offsetInCU: 0xD9B9, offset: 0xD9B9, size: 0x8, addend: 0x0, symName: __ZSt14__relocate_a_1IP10ServerInfoS1_SaIS0_EET0_T_S4_S3_RT1_, symObjAddr: 0x3F38, symBinAddr: 0x100007250, symSize: 0x84 }
  - { offsetInCU: 0xDA42, offset: 0xDA42, size: 0x8, addend: 0x0, symName: __ZSt12__niter_baseIP10ServerInfoET_S2_, symObjAddr: 0x3F24, symBinAddr: 0x10000723C, symSize: 0x14 }
  - { offsetInCU: 0xDA79, offset: 0xDA79, size: 0x8, addend: 0x0, symName: __ZNSt15__new_allocatorI10ServerInfoE8allocateEmPKv, symObjAddr: 0x3E8C, symBinAddr: 0x1000071A4, symSize: 0x98 }
  - { offsetInCU: 0xDB05, offset: 0xDB05, size: 0x8, addend: 0x0, symName: __ZNKSt12_Vector_baseI10ServerInfoSaIS0_EE19_M_get_Tp_allocatorEv, symObjAddr: 0x3E78, symBinAddr: 0x100007190, symSize: 0x14 }
  - { offsetInCU: 0xDB2B, offset: 0xDB2B, size: 0x8, addend: 0x0, symName: __ZNSt6vectorI10ServerInfoSaIS0_EE11_S_max_sizeERKS1_, symObjAddr: 0x3E14, symBinAddr: 0x10000712C, symSize: 0x64 }
  - { offsetInCU: 0xDBE6, offset: 0xDBE6, size: 0x8, addend: 0x0, symName: __ZNK9__gnu_cxx16__aligned_membufISt4pairIKNSt7__cxx1112basic_stringIcSt11char_traitsIcESaIcEEEbEE6_M_ptrEv, symObjAddr: 0x3DF8, symBinAddr: 0x100007110, symSize: 0x1C }
  - { offsetInCU: 0xDC18, offset: 0xDC18, size: 0x8, addend: 0x0, symName: __ZSt7forwardIRPSt13_Rb_tree_nodeISt4pairIKNSt7__cxx1112basic_stringIcSt11char_traitsIcESaIcEEEbEEEOT_RNSt16remove_referenceISD_E4typeE, symObjAddr: 0x3DE4, symBinAddr: 0x1000070FC, symSize: 0x14 }
  - { offsetInCU: 0xDCCA, offset: 0xDCCA, size: 0x8, addend: 0x0, symName: __ZNSt15__new_allocatorISt13_Rb_tree_nodeISt4pairIKNSt7__cxx1112basic_stringIcSt11char_traitsIcESaIcEEEbEEE10deallocateEPSA_m, symObjAddr: 0x3DA8, symBinAddr: 0x1000070C0, symSize: 0x3C }
  - { offsetInCU: 0xDDAB, offset: 0xDDAB, size: 0x8, addend: 0x0, symName: __ZNSt4pairIKNSt7__cxx1112basic_stringIcSt11char_traitsIcESaIcEEEbED1Ev, symObjAddr: 0x3D88, symBinAddr: 0x1000070A0, symSize: 0x20 }
  - { offsetInCU: 0xDD90, offset: 0xDD90, size: 0x8, addend: 0x0, symName: __ZSt3getILm1EJPNSt6thread6_StateESt14default_deleteIS1_EEERNSt13tuple_elementIXT_ESt5tupleIJDpT0_EEE4typeERS9_, symObjAddr: 0x3D6C, symBinAddr: 0x100007084, symSize: 0x1C }
  - { offsetInCU: 0xDDD4, offset: 0xDDD4, size: 0x8, addend: 0x0, symName: __ZSt12__get_helperILm0EPNSt6thread6_StateEJSt14default_deleteIS1_EEERT0_RSt11_Tuple_implIXT_EJS5_DpT1_EE, symObjAddr: 0x3D50, symBinAddr: 0x100007068, symSize: 0x1C }
  - { offsetInCU: 0xDE7F, offset: 0xDE7F, size: 0x8, addend: 0x0, symName: __ZNSt11_Tuple_implILm0EJPNSt6thread6_StateESt14default_deleteIS1_EEEC2Ev, symObjAddr: 0x3D28, symBinAddr: 0x100007040, symSize: 0x28 }
  - { offsetInCU: 0xDEAC, offset: 0xDEAC, size: 0x8, addend: 0x0, symName: __ZNSt11_Tuple_implILm0EJPFvvEEEC2ERKS1_, symObjAddr: 0x3D00, symBinAddr: 0x100007018, symSize: 0x28 }
  - { offsetInCU: 0xDEB3, offset: 0xDEB3, size: 0x8, addend: 0x0, symName: __ZSt12__relocate_aIP10ServerInfoS1_SaIS0_EET0_T_S4_S3_RT1_, symObjAddr: 0x3CA4, symBinAddr: 0x100006FBC, symSize: 0x5C }
  - { offsetInCU: 0xDF53, offset: 0xDF53, size: 0x8, addend: 0x0, symName: __ZNK9__gnu_cxx17__normal_iteratorIP10ServerInfoSt6vectorIS1_SaIS1_EEE4baseEv, symObjAddr: 0x3C90, symBinAddr: 0x100006FA8, symSize: 0x14 }
  - { offsetInCU: 0xDFEE, offset: 0xDFEE, size: 0x8, addend: 0x0, symName: __ZN9__gnu_cxx17__normal_iteratorIP10ServerInfoSt6vectorIS1_SaIS1_EEEC1ERKS2_, symObjAddr: 0x3C68, symBinAddr: 0x100006F80, symSize: 0x28 }
  - { offsetInCU: 0xDFD6, offset: 0xDFD6, size: 0x8, addend: 0x0, symName: __ZSt3maxImERKT_S2_S2_, symObjAddr: 0x3C30, symBinAddr: 0x100006F48, symSize: 0x38 }
  - { offsetInCU: 0xE01E, offset: 0xE01E, size: 0x8, addend: 0x0, symName: __ZNKSt6vectorI10ServerInfoSaIS0_EE8max_sizeEv, symObjAddr: 0x3C10, symBinAddr: 0x100006F28, symSize: 0x20 }
  - { offsetInCU: 0xE048, offset: 0xE048, size: 0x8, addend: 0x0, symName: __ZNKSt10_Select1stISt4pairIKNSt7__cxx1112basic_stringIcSt11char_traitsIcESaIcEEEbEEclERKS8_, symObjAddr: 0x3BF8, symBinAddr: 0x100006F10, symSize: 0x18 }
  - { offsetInCU: 0xE083, offset: 0xE083, size: 0x8, addend: 0x0, symName: __ZNKSt13_Rb_tree_nodeISt4pairIKNSt7__cxx1112basic_stringIcSt11char_traitsIcESaIcEEEbEE9_M_valptrEv, symObjAddr: 0x3BD8, symBinAddr: 0x100006EF0, symSize: 0x20 }
  - { offsetInCU: 0xE0AF, offset: 0xE0AF, size: 0x8, addend: 0x0, symName: __ZSt7forwardIRPSt18_Rb_tree_node_baseEOT_RNSt16remove_referenceIS3_E4typeE, symObjAddr: 0x3BC4, symBinAddr: 0x100006EDC, symSize: 0x14 }
  - { offsetInCU: 0xE1B3, offset: 0xE1B3, size: 0x8, addend: 0x0, symName: __ZNSt4pairIPSt18_Rb_tree_node_baseS1_EC1IRPSt13_Rb_tree_nodeIS_IKNSt7__cxx1112basic_stringIcSt11char_traitsIcESaIcEEEbEERS1_Lb1EEEOT_OT0_, symObjAddr: 0x3B7C, symBinAddr: 0x100006E94, symSize: 0x48 }
  - { offsetInCU: 0xE177, offset: 0xE177, size: 0x8, addend: 0x0, symName: __ZNSt8_Rb_treeINSt7__cxx1112basic_stringIcSt11char_traitsIcESaIcEEESt4pairIKS5_bESt10_Select1stIS8_ESt4lessIS5_ESaIS8_EE5beginEv, symObjAddr: 0x3B54, symBinAddr: 0x100006E6C, symSize: 0x28 }
  - { offsetInCU: 0xE1A1, offset: 0xE1A1, size: 0x8, addend: 0x0, symName: __ZNSt8_Rb_treeINSt7__cxx1112basic_stringIcSt11char_traitsIcESaIcEEESt4pairIKS5_bESt10_Select1stIS8_ESt4lessIS5_ESaIS8_EE17_M_construct_nodeIJRKSt21piecewise_construct_tSt5tupleIJRS7_EESJ_IJEEEEEvPSt13_Rb_tree_nodeIS8_EDpOT_, symObjAddr: 0x39D8, symBinAddr: 0x100006CF0, symSize: 0x17C }
  - { offsetInCU: 0xE2A2, offset: 0xE2A2, size: 0x8, addend: 0x0, symName: __ZNSt8_Rb_treeINSt7__cxx1112basic_stringIcSt11char_traitsIcESaIcEEESt4pairIKS5_bESt10_Select1stIS8_ESt4lessIS5_ESaIS8_EE11_M_get_nodeEv, symObjAddr: 0x399C, symBinAddr: 0x100006CB4, symSize: 0x3C }
  - { offsetInCU: 0xE2FE, offset: 0xE2FE, size: 0x8, addend: 0x0, symName: __ZN9__gnu_cxx16__aligned_membufISt4pairIKNSt7__cxx1112basic_stringIcSt11char_traitsIcESaIcEEEbEE7_M_addrEv, symObjAddr: 0x3988, symBinAddr: 0x100006CA0, symSize: 0x14 }
  - { offsetInCU: 0xE386, offset: 0xE386, size: 0x8, addend: 0x0, symName: __ZNSt8_Rb_treeINSt7__cxx1112basic_stringIcSt11char_traitsIcESaIcEEESt4pairIKS5_bESt10_Select1stIS8_ESt4lessIS5_ESaIS8_EE21_M_get_Node_allocatorEv, symObjAddr: 0x3974, symBinAddr: 0x100006C8C, symSize: 0x14 }
  - { offsetInCU: 0xE3AC, offset: 0xE3AC, size: 0x8, addend: 0x0, symName: __ZSt8_DestroyI10ServerInfoEvPT_, symObjAddr: 0x3954, symBinAddr: 0x100006C6C, symSize: 0x20 }
  - { offsetInCU: 0xE3DE, offset: 0xE3DE, size: 0x8, addend: 0x0, symName: __ZSt11__addressofI10ServerInfoEPT_RS1_, symObjAddr: 0x3940, symBinAddr: 0x100006C58, symSize: 0x14 }
  - { offsetInCU: 0xE414, offset: 0xE414, size: 0x8, addend: 0x0, symName: __ZNSt15__uniq_ptr_implINSt6thread6_StateESt14default_deleteIS1_EE10_M_deleterEv, symObjAddr: 0x3924, symBinAddr: 0x100006C3C, symSize: 0x1C }
  - { offsetInCU: 0xE440, offset: 0xE440, size: 0x8, addend: 0x0, symName: __ZSt3getILm0EJPNSt6thread6_StateESt14default_deleteIS1_EEERNSt13tuple_elementIXT_ESt5tupleIJDpT0_EEE4typeERS9_, symObjAddr: 0x3908, symBinAddr: 0x100006C20, symSize: 0x1C }
  - { offsetInCU: 0xE4F0, offset: 0xE4F0, size: 0x8, addend: 0x0, symName: __ZNSt5tupleIJPNSt6thread6_StateESt14default_deleteIS1_EEEC1ILb1ELb1EEEv, symObjAddr: 0x38E8, symBinAddr: 0x100006C00, symSize: 0x20 }
  - { offsetInCU: 0xE531, offset: 0xE531, size: 0x8, addend: 0x0, symName: __ZNSt5tupleIJPFvvEEEC1ILb1ELb1EEERKS1_, symObjAddr: 0x38C0, symBinAddr: 0x100006BD8, symSize: 0x28 }
  - { offsetInCU: 0xE547, offset: 0xE547, size: 0x8, addend: 0x0, symName: __ZNK9__gnu_cxx17__normal_iteratorIP10ServerInfoSt6vectorIS1_SaIS1_EEEdeEv, symObjAddr: 0x38A8, symBinAddr: 0x100006BC0, symSize: 0x18 }
  - { offsetInCU: 0xE571, offset: 0xE571, size: 0x8, addend: 0x0, symName: __ZNK9__gnu_cxx17__normal_iteratorIP10ServerInfoSt6vectorIS1_SaIS1_EEEmiEl, symObjAddr: 0x3858, symBinAddr: 0x100006B70, symSize: 0x50 }
  - { offsetInCU: 0xE5A8, offset: 0xE5A8, size: 0x8, addend: 0x0, symName: __ZNSt6vectorI10ServerInfoSaIS0_EE11_S_relocateEPS0_S3_S3_RS1_, symObjAddr: 0x3824, symBinAddr: 0x100006B3C, symSize: 0x34 }
  - { offsetInCU: 0xE605, offset: 0xE605, size: 0x8, addend: 0x0, symName: __ZSt12__to_addressI10ServerInfoEPT_S2_, symObjAddr: 0x3810, symBinAddr: 0x100006B28, symSize: 0x14 }
  - { offsetInCU: 0xE63B, offset: 0xE63B, size: 0x8, addend: 0x0, symName: __ZNSt12_Vector_baseI10ServerInfoSaIS0_EE11_M_allocateEm, symObjAddr: 0x37C0, symBinAddr: 0x100006AD8, symSize: 0x50 }
  - { offsetInCU: 0xE6A5, offset: 0xE6A5, size: 0x8, addend: 0x0, symName: __ZN9__gnu_cxxmiIP10ServerInfoSt6vectorIS1_SaIS1_EEEENS_17__normal_iteratorIT_T0_E15difference_typeERKS9_SC_, symObjAddr: 0x376C, symBinAddr: 0x100006A84, symSize: 0x54 }
  - { offsetInCU: 0xE6F6, offset: 0xE6F6, size: 0x8, addend: 0x0, symName: __ZNSt6vectorI10ServerInfoSaIS0_EE5beginEv, symObjAddr: 0x3748, symBinAddr: 0x100006A60, symSize: 0x24 }
  - { offsetInCU: 0xE720, offset: 0xE720, size: 0x8, addend: 0x0, symName: __ZNSt6vectorI10ServerInfoSaIS0_EE3endEv, symObjAddr: 0x3720, symBinAddr: 0x100006A38, symSize: 0x28 }
  - { offsetInCU: 0xE74A, offset: 0xE74A, size: 0x8, addend: 0x0, symName: __ZNKSt6vectorI10ServerInfoSaIS0_EE12_M_check_lenEmPKc, symObjAddr: 0x3650, symBinAddr: 0x100006968, symSize: 0xD0 }
  - { offsetInCU: 0xE81D, offset: 0xE81D, size: 0x8, addend: 0x0, symName: __ZN10ServerInfoC1EOS_, symObjAddr: 0x35FC, symBinAddr: 0x100006914, symSize: 0x54 }
  - { offsetInCU: 0xE83A, offset: 0xE83A, size: 0x8, addend: 0x0, symName: __ZNSt8_Rb_treeINSt7__cxx1112basic_stringIcSt11char_traitsIcESaIcEEESt4pairIKS5_bESt10_Select1stIS8_ESt4lessIS5_ESaIS8_EE14_M_insert_nodeEPSt18_Rb_tree_node_baseSG_PSt13_Rb_tree_nodeIS8_E, symObjAddr: 0x352C, symBinAddr: 0x100006844, symSize: 0xD0 }
  - { offsetInCU: 0xE8A4, offset: 0xE8A4, size: 0x8, addend: 0x0, symName: __ZNSt8_Rb_treeINSt7__cxx1112basic_stringIcSt11char_traitsIcESaIcEEESt4pairIKS5_bESt10_Select1stIS8_ESt4lessIS5_ESaIS8_EE6_S_keyEPKSt13_Rb_tree_nodeIS8_E, symObjAddr: 0x3504, symBinAddr: 0x10000681C, symSize: 0x28 }
  - { offsetInCU: 0xE8D2, offset: 0xE8D2, size: 0x8, addend: 0x0, symName: __ZNSt17_Rb_tree_iteratorISt4pairIKNSt7__cxx1112basic_stringIcSt11char_traitsIcESaIcEEEbEEppEv, symObjAddr: 0x34D4, symBinAddr: 0x1000067EC, symSize: 0x30 }
  - { offsetInCU: 0xE8FC, offset: 0xE8FC, size: 0x8, addend: 0x0, symName: __ZNSt17_Rb_tree_iteratorISt4pairIKNSt7__cxx1112basic_stringIcSt11char_traitsIcESaIcEEEbEEmmEv, symObjAddr: 0x34A4, symBinAddr: 0x1000067BC, symSize: 0x30 }
  - { offsetInCU: 0xE9A8, offset: 0xE9A8, size: 0x8, addend: 0x0, symName: __ZNSt4pairIPSt18_Rb_tree_node_baseS1_EC1IRS1_S4_Lb1EEEOT_OT0_, symObjAddr: 0x345C, symBinAddr: 0x100006774, symSize: 0x48 }
  - { offsetInCU: 0xE9B8, offset: 0xE9B8, size: 0x8, addend: 0x0, symName: __ZNSt8_Rb_treeINSt7__cxx1112basic_stringIcSt11char_traitsIcESaIcEEESt4pairIKS5_bESt10_Select1stIS8_ESt4lessIS5_ESaIS8_EE11_M_leftmostEv, symObjAddr: 0x3444, symBinAddr: 0x10000675C, symSize: 0x18 }
  - { offsetInCU: 0xE9E2, offset: 0xE9E2, size: 0x8, addend: 0x0, symName: __ZNSt8_Rb_treeINSt7__cxx1112basic_stringIcSt11char_traitsIcESaIcEEESt4pairIKS5_bESt10_Select1stIS8_ESt4lessIS5_ESaIS8_EE24_M_get_insert_unique_posERS7_, symObjAddr: 0x32EC, symBinAddr: 0x100006604, symSize: 0x158 }
  - { offsetInCU: 0xEAE8, offset: 0xEAE8, size: 0x8, addend: 0x0, symName: __ZNSt4pairIPSt18_Rb_tree_node_baseS1_EC1IS1_S1_Lb1EEERKS1_S5_, symObjAddr: 0x32B0, symBinAddr: 0x1000065C8, symSize: 0x3C }
  - { offsetInCU: 0xEAF4, offset: 0xEAF4, size: 0x8, addend: 0x0, symName: __ZNSt8_Rb_treeINSt7__cxx1112basic_stringIcSt11char_traitsIcESaIcEEESt4pairIKS5_bESt10_Select1stIS8_ESt4lessIS5_ESaIS8_EE6_S_keyEPKSt18_Rb_tree_node_base, symObjAddr: 0x3294, symBinAddr: 0x1000065AC, symSize: 0x1C }
  - { offsetInCU: 0xEB22, offset: 0xEB22, size: 0x8, addend: 0x0, symName: __ZNSt8_Rb_treeINSt7__cxx1112basic_stringIcSt11char_traitsIcESaIcEEESt4pairIKS5_bESt10_Select1stIS8_ESt4lessIS5_ESaIS8_EE12_M_rightmostEv, symObjAddr: 0x327C, symBinAddr: 0x100006594, symSize: 0x18 }
  - { offsetInCU: 0xEB4C, offset: 0xEB4C, size: 0x8, addend: 0x0, symName: __ZNKSt8_Rb_treeINSt7__cxx1112basic_stringIcSt11char_traitsIcESaIcEEESt4pairIKS5_bESt10_Select1stIS8_ESt4lessIS5_ESaIS8_EE4sizeEv, symObjAddr: 0x3264, symBinAddr: 0x10000657C, symSize: 0x18 }
  - { offsetInCU: 0xEB76, offset: 0xEB76, size: 0x8, addend: 0x0, symName: __ZNKSt23_Rb_tree_const_iteratorISt4pairIKNSt7__cxx1112basic_stringIcSt11char_traitsIcESaIcEEEbEE13_M_const_castEv, symObjAddr: 0x323C, symBinAddr: 0x100006554, symSize: 0x28 }
  - { offsetInCU: 0xEBA0, offset: 0xEBA0, size: 0x8, addend: 0x0, symName: __ZNSt8_Rb_treeINSt7__cxx1112basic_stringIcSt11char_traitsIcESaIcEEESt4pairIKS5_bESt10_Select1stIS8_ESt4lessIS5_ESaIS8_EE14_M_create_nodeIJRKSt21piecewise_construct_tSt5tupleIJRS7_EESJ_IJEEEEEPSt13_Rb_tree_nodeIS8_EDpOT_, symObjAddr: 0x31CC, symBinAddr: 0x1000064E4, symSize: 0x70 }
  - { offsetInCU: 0xEC8D, offset: 0xEC8D, size: 0x8, addend: 0x0, symName: __ZNSt10_Head_baseILm0ERKNSt7__cxx1112basic_stringIcSt11char_traitsIcESaIcEEELb0EEC2ES7_, symObjAddr: 0x31A8, symBinAddr: 0x1000064C0, symSize: 0x24 }
  - { offsetInCU: 0xEC64, offset: 0xEC64, size: 0x8, addend: 0x0, symName: __ZSt3minImERKT_S2_S2_, symObjAddr: 0x3170, symBinAddr: 0x100006488, symSize: 0x38 }
  - { offsetInCU: 0xECAA, offset: 0xECAA, size: 0x8, addend: 0x0, symName: __ZN9__gnu_cxx16__aligned_membufISt4pairIKNSt7__cxx1112basic_stringIcSt11char_traitsIcESaIcEEEbEE6_M_ptrEv, symObjAddr: 0x3154, symBinAddr: 0x10000646C, symSize: 0x1C }
  - { offsetInCU: 0xECD4, offset: 0xECD4, size: 0x8, addend: 0x0, symName: __ZNSt8_Rb_treeINSt7__cxx1112basic_stringIcSt11char_traitsIcESaIcEEESt4pairIKS5_bESt10_Select1stIS8_ESt4lessIS5_ESaIS8_EE14_M_lower_boundEPSt13_Rb_tree_nodeIS8_EPSt18_Rb_tree_node_baseRS7_, symObjAddr: 0x30B8, symBinAddr: 0x1000063D0, symSize: 0x9C }
  - { offsetInCU: 0xED31, offset: 0xED31, size: 0x8, addend: 0x0, symName: __ZNSt8_Rb_treeINSt7__cxx1112basic_stringIcSt11char_traitsIcESaIcEEESt4pairIKS5_bESt10_Select1stIS8_ESt4lessIS5_ESaIS8_EE6_M_endEv, symObjAddr: 0x30A0, symBinAddr: 0x1000063B8, symSize: 0x18 }
  - { offsetInCU: 0xED5B, offset: 0xED5B, size: 0x8, addend: 0x0, symName: __ZNSt8_Rb_treeINSt7__cxx1112basic_stringIcSt11char_traitsIcESaIcEEESt4pairIKS5_bESt10_Select1stIS8_ESt4lessIS5_ESaIS8_EE11_M_put_nodeEPSt13_Rb_tree_nodeIS8_E, symObjAddr: 0x3054, symBinAddr: 0x10000636C, symSize: 0x4C }
  - { offsetInCU: 0xEDCC, offset: 0xEDCC, size: 0x8, addend: 0x0, symName: __ZNSt8_Rb_treeINSt7__cxx1112basic_stringIcSt11char_traitsIcESaIcEEESt4pairIKS5_bESt10_Select1stIS8_ESt4lessIS5_ESaIS8_EE15_M_destroy_nodeEPSt13_Rb_tree_nodeIS8_E, symObjAddr: 0x2FF4, symBinAddr: 0x10000630C, symSize: 0x60 }
  - { offsetInCU: 0xEE5D, offset: 0xEE5D, size: 0x8, addend: 0x0, symName: __ZNSt12_Destroy_auxILb0EE9__destroyIP10ServerInfoEEvT_S4_, symObjAddr: 0x2FA8, symBinAddr: 0x1000062C0, symSize: 0x4C }
  - { offsetInCU: 0xEEA3, offset: 0xEEA3, size: 0x8, addend: 0x0, symName: __ZNSt15__new_allocatorI10ServerInfoE10deallocateEPS0_m, symObjAddr: 0x2F6C, symBinAddr: 0x100006284, symSize: 0x3C }
  - { offsetInCU: 0xEF38, offset: 0xEF38, size: 0x8, addend: 0x0, symName: __ZNKSt14default_deleteINSt6thread6_StateEEclEPS1_, symObjAddr: 0x2F34, symBinAddr: 0x10000624C, symSize: 0x38 }
  - { offsetInCU: 0xEF74, offset: 0xEF74, size: 0x8, addend: 0x0, symName: __ZSt4moveIRPNSt6thread6_StateEEONSt16remove_referenceIT_E4typeEOS5_, symObjAddr: 0x2F20, symBinAddr: 0x100006238, symSize: 0x14 }
  - { offsetInCU: 0xEFAA, offset: 0xEFAA, size: 0x8, addend: 0x0, symName: __ZNSt10unique_ptrINSt6thread6_StateESt14default_deleteIS1_EE11get_deleterEv, symObjAddr: 0x2F04, symBinAddr: 0x10000621C, symSize: 0x1C }
  - { offsetInCU: 0xEFD4, offset: 0xEFD4, size: 0x8, addend: 0x0, symName: __ZNSt15__uniq_ptr_implINSt6thread6_StateESt14default_deleteIS1_EE6_M_ptrEv, symObjAddr: 0x2EE8, symBinAddr: 0x100006200, symSize: 0x1C }
  - { offsetInCU: 0xF06A, offset: 0xF06A, size: 0x8, addend: 0x0, symName: __ZNSt15__uniq_ptr_implINSt6thread6_StateESt14default_deleteIS1_EEC2EPS1_, symObjAddr: 0x2EAC, symBinAddr: 0x1000061C4, symSize: 0x3C }
  - { offsetInCU: 0xF0C0, offset: 0xF0C0, size: 0x8, addend: 0x0, symName: __ZNSt6thread8_InvokerISt5tupleIJPFvvEEEEC1IJRS2_EEEDpOT_, symObjAddr: 0x2E68, symBinAddr: 0x100006180, symSize: 0x44 }
  - { offsetInCU: 0xF0CC, offset: 0xF0CC, size: 0x8, addend: 0x0, symName: __ZNK9__gnu_cxx17__normal_iteratorIPK10ServerInfoSt6vectorIS1_SaIS1_EEE4baseEv, symObjAddr: 0x2E54, symBinAddr: 0x10000616C, symSize: 0x14 }
  - { offsetInCU: 0xF168, offset: 0xF168, size: 0x8, addend: 0x0, symName: __ZN9__gnu_cxx17__normal_iteratorIPK10ServerInfoSt6vectorIS1_SaIS1_EEEC1ERKS3_, symObjAddr: 0x2E2C, symBinAddr: 0x100006144, symSize: 0x28 }
  - { offsetInCU: 0xF14D, offset: 0xF14D, size: 0x8, addend: 0x0, symName: __ZNSt6vectorI10ServerInfoSaIS0_EE4backEv, symObjAddr: 0x2DF4, symBinAddr: 0x10000610C, symSize: 0x38 }
  - { offsetInCU: 0xF177, offset: 0xF177, size: 0x8, addend: 0x0, symName: __ZNSt6vectorI10ServerInfoSaIS0_EE17_M_realloc_appendIJS0_EEEvDpOT_, symObjAddr: 0x2C00, symBinAddr: 0x100005F18, symSize: 0x1F4 }
  - { offsetInCU: 0xF350, offset: 0xF350, size: 0x8, addend: 0x0, symName: __ZZNSt6vectorI10ServerInfoSaIS0_EE17_M_realloc_appendIJS0_EEEvDpOT_EN6_GuardC1EPS0_mRS1_, symObjAddr: 0x2B5C, symBinAddr: 0x100005E74, symSize: 0x44 }
  - { offsetInCU: 0xF38E, offset: 0xF38E, size: 0x8, addend: 0x0, symName: __ZZNSt6vectorI10ServerInfoSaIS0_EE17_M_realloc_appendIJS0_EEEvDpOT_EN6_GuardD1Ev, symObjAddr: 0x2BA0, symBinAddr: 0x100005EB8, symSize: 0x60 }
  - { offsetInCU: 0xF479, offset: 0xF479, size: 0x8, addend: 0x0, symName: __ZSt7forwardI10ServerInfoEOT_RNSt16remove_referenceIS1_E4typeE, symObjAddr: 0x2B48, symBinAddr: 0x100005E60, symSize: 0x14 }
  - { offsetInCU: 0xF55D, offset: 0xF55D, size: 0x8, addend: 0x0, symName: __ZNSt17_Rb_tree_iteratorISt4pairIKNSt7__cxx1112basic_stringIcSt11char_traitsIcESaIcEEEbEEC1EPSt18_Rb_tree_node_base, symObjAddr: 0x2B24, symBinAddr: 0x100005E3C, symSize: 0x24 }
  - { offsetInCU: 0xF51C, offset: 0xF51C, size: 0x8, addend: 0x0, symName: __ZNSt8_Rb_treeINSt7__cxx1112basic_stringIcSt11char_traitsIcESaIcEEESt4pairIKS5_bESt10_Select1stIS8_ESt4lessIS5_ESaIS8_EE10_Auto_node9_M_insertES6_IPSt18_Rb_tree_node_baseSH_E, symObjAddr: 0x2AD8, symBinAddr: 0x100005DF0, symSize: 0x4C }
  - { offsetInCU: 0xF568, offset: 0xF568, size: 0x8, addend: 0x0, symName: __ZNKSt8_Rb_treeINSt7__cxx1112basic_stringIcSt11char_traitsIcESaIcEEESt4pairIKS5_bESt10_Select1stIS8_ESt4lessIS5_ESaIS8_EE10_Auto_node6_M_keyEv, symObjAddr: 0x2AB8, symBinAddr: 0x100005DD0, symSize: 0x20 }
  - { offsetInCU: 0xF592, offset: 0xF592, size: 0x8, addend: 0x0, symName: __ZNSt8_Rb_treeINSt7__cxx1112basic_stringIcSt11char_traitsIcESaIcEEESt4pairIKS5_bESt10_Select1stIS8_ESt4lessIS5_ESaIS8_EE29_M_get_insert_hint_unique_posESt23_Rb_tree_const_iteratorIS8_ERS7_, symObjAddr: 0x2794, symBinAddr: 0x100005AAC, symSize: 0x324 }
  - { offsetInCU: 0xF6E6, offset: 0xF6E6, size: 0x8, addend: 0x0, symName: __ZNSt8_Rb_treeINSt7__cxx1112basic_stringIcSt11char_traitsIcESaIcEEESt4pairIKS5_bESt10_Select1stIS8_ESt4lessIS5_ESaIS8_EE10_Auto_nodeD1Ev, symObjAddr: 0x2750, symBinAddr: 0x100005A68, symSize: 0x44 }
  - { offsetInCU: 0xF79D, offset: 0xF79D, size: 0x8, addend: 0x0, symName: __ZNSt8_Rb_treeINSt7__cxx1112basic_stringIcSt11char_traitsIcESaIcEEESt4pairIKS5_bESt10_Select1stIS8_ESt4lessIS5_ESaIS8_EE10_Auto_nodeC1IJRKSt21piecewise_construct_tSt5tupleIJRS7_EESK_IJEEEEERSE_DpOT_, symObjAddr: 0x26D4, symBinAddr: 0x1000059EC, symSize: 0x7C }
  - { offsetInCU: 0xF742, offset: 0xF742, size: 0x8, addend: 0x0, symName: __ZSt7forwardISt5tupleIJEEEOT_RNSt16remove_referenceIS2_E4typeE, symObjAddr: 0x26C0, symBinAddr: 0x1000059D8, symSize: 0x14 }
  - { offsetInCU: 0xF77A, offset: 0xF77A, size: 0x8, addend: 0x0, symName: __ZSt7forwardISt5tupleIJRKNSt7__cxx1112basic_stringIcSt11char_traitsIcESaIcEEEEEEOT_RNSt16remove_referenceISA_E4typeE, symObjAddr: 0x26AC, symBinAddr: 0x1000059C4, symSize: 0x14 }
  - { offsetInCU: 0xF7B2, offset: 0xF7B2, size: 0x8, addend: 0x0, symName: __ZSt7forwardIRKSt21piecewise_construct_tEOT_RNSt16remove_referenceIS3_E4typeE, symObjAddr: 0x2698, symBinAddr: 0x1000059B0, symSize: 0x14 }
  - { offsetInCU: 0xF863, offset: 0xF863, size: 0x8, addend: 0x0, symName: __ZNSt11_Tuple_implILm0EJRKNSt7__cxx1112basic_stringIcSt11char_traitsIcESaIcEEEEEC2ES7_, symObjAddr: 0x2670, symBinAddr: 0x100005988, symSize: 0x28 }
  - { offsetInCU: 0xF83B, offset: 0xF83B, size: 0x8, addend: 0x0, symName: __ZStltIcSt11char_traitsIcESaIcEEbRKNSt7__cxx1112basic_stringIT_T0_T1_EESA_, symObjAddr: 0x2644, symBinAddr: 0x10000595C, symSize: 0x2C }
  - { offsetInCU: 0xF895, offset: 0xF895, size: 0x8, addend: 0x0, symName: __ZNSt13_Rb_tree_nodeISt4pairIKNSt7__cxx1112basic_stringIcSt11char_traitsIcESaIcEEEbEE9_M_valptrEv, symObjAddr: 0x2624, symBinAddr: 0x10000593C, symSize: 0x20 }
  - { offsetInCU: 0xF8BF, offset: 0xF8BF, size: 0x8, addend: 0x0, symName: __ZNKSt8_Rb_treeINSt7__cxx1112basic_stringIcSt11char_traitsIcESaIcEEESt4pairIKS5_bESt10_Select1stIS8_ESt4lessIS5_ESaIS8_EE8key_compEv, symObjAddr: 0x260C, symBinAddr: 0x100005924, symSize: 0x18 }
  - { offsetInCU: 0xF8E9, offset: 0xF8E9, size: 0x8, addend: 0x0, symName: __ZNSt8_Rb_treeINSt7__cxx1112basic_stringIcSt11char_traitsIcESaIcEEESt4pairIKS5_bESt10_Select1stIS8_ESt4lessIS5_ESaIS8_EE3endEv, symObjAddr: 0x25E4, symBinAddr: 0x1000058FC, symSize: 0x28 }
  - { offsetInCU: 0xF913, offset: 0xF913, size: 0x8, addend: 0x0, symName: __ZNSt8_Rb_treeINSt7__cxx1112basic_stringIcSt11char_traitsIcESaIcEEESt4pairIKS5_bESt10_Select1stIS8_ESt4lessIS5_ESaIS8_EE11lower_boundERS7_, symObjAddr: 0x259C, symBinAddr: 0x1000058B4, symSize: 0x48 }
  - { offsetInCU: 0xF94E, offset: 0xF94E, size: 0x8, addend: 0x0, symName: __ZNKSt8_Rb_treeINSt7__cxx1112basic_stringIcSt11char_traitsIcESaIcEEESt4pairIKS5_bESt10_Select1stIS8_ESt4lessIS5_ESaIS8_EE9_M_mbeginEv, symObjAddr: 0x2584, symBinAddr: 0x10000589C, symSize: 0x18 }
  - { offsetInCU: 0xF978, offset: 0xF978, size: 0x8, addend: 0x0, symName: __ZNSt8_Rb_treeINSt7__cxx1112basic_stringIcSt11char_traitsIcESaIcEEESt4pairIKS5_bESt10_Select1stIS8_ESt4lessIS5_ESaIS8_EE12_M_drop_nodeEPSt13_Rb_tree_nodeIS8_E, symObjAddr: 0x2550, symBinAddr: 0x100005868, symSize: 0x34 }
  - { offsetInCU: 0xF9AF, offset: 0xF9AF, size: 0x8, addend: 0x0, symName: __ZNSt8_Rb_treeINSt7__cxx1112basic_stringIcSt11char_traitsIcESaIcEEESt4pairIKS5_bESt10_Select1stIS8_ESt4lessIS5_ESaIS8_EE7_S_leftEPSt18_Rb_tree_node_base, symObjAddr: 0x2538, symBinAddr: 0x100005850, symSize: 0x18 }
  - { offsetInCU: 0xF9D9, offset: 0xF9D9, size: 0x8, addend: 0x0, symName: __ZNSt8_Rb_treeINSt7__cxx1112basic_stringIcSt11char_traitsIcESaIcEEESt4pairIKS5_bESt10_Select1stIS8_ESt4lessIS5_ESaIS8_EE8_S_rightEPSt18_Rb_tree_node_base, symObjAddr: 0x2520, symBinAddr: 0x100005838, symSize: 0x18 }
  - { offsetInCU: 0xFA19, offset: 0xFA19, size: 0x8, addend: 0x0, symName: __ZSt8_DestroyIP10ServerInfoEvT_S2_, symObjAddr: 0x24F8, symBinAddr: 0x100005810, symSize: 0x28 }
  - { offsetInCU: 0xFB67, offset: 0xFB67, size: 0x8, addend: 0x0, symName: __ZNSt10unique_ptrINSt6thread6_StateESt14default_deleteIS1_EED1Ev, symObjAddr: 0x2490, symBinAddr: 0x1000057A8, symSize: 0x68 }
  - { offsetInCU: 0xFBF4, offset: 0xFBF4, size: 0x8, addend: 0x0, symName: __ZNSt10unique_ptrINSt6thread6_StateESt14default_deleteIS1_EEC1IS3_vEEPS1_, symObjAddr: 0x2468, symBinAddr: 0x100005780, symSize: 0x28 }
  - { offsetInCU: 0xFC71, offset: 0xFC71, size: 0x8, addend: 0x0, symName: __ZNSt15__uniq_ptr_dataINSt6thread6_StateESt14default_deleteIS1_ELb1ELb1EECI1St15__uniq_ptr_implIS1_S3_EEPS1_, symObjAddr: 0x2440, symBinAddr: 0x100005758, symSize: 0x28 }
  - { offsetInCU: 0xFCAF, offset: 0xFCAF, size: 0x8, addend: 0x0, symName: __ZNSt6thread11_State_implINS_8_InvokerISt5tupleIJPFvvEEEEEEC1IJRS3_EEEDpOT_, symObjAddr: 0x23D0, symBinAddr: 0x1000056E8, symSize: 0x70 }
  - { offsetInCU: 0xFCD8, offset: 0xFCD8, size: 0x8, addend: 0x0, symName: __ZNSt6thread6_StateC2Ev, symObjAddr: 0x23A8, symBinAddr: 0x1000056C0, symSize: 0x28 }
  - { offsetInCU: 0xFCF1, offset: 0xFCF1, size: 0x8, addend: 0x0, symName: __ZSt7forwardIRFvvEEOT_RNSt16remove_referenceIS2_E4typeE, symObjAddr: 0x2394, symBinAddr: 0x1000056AC, symSize: 0x14 }
  - { offsetInCU: 0xFD28, offset: 0xFD28, size: 0x8, addend: 0x0, symName: __ZN9__gnu_cxxeqIPK10ServerInfoSt6vectorIS1_SaIS1_EEEEbRKNS_17__normal_iteratorIT_T0_EESC_, symObjAddr: 0x2350, symBinAddr: 0x100005668, symSize: 0x44 }
  - { offsetInCU: 0xFD79, offset: 0xFD79, size: 0x8, addend: 0x0, symName: __ZNKSt6vectorI10ServerInfoSaIS0_EE3endEv, symObjAddr: 0x2328, symBinAddr: 0x100005640, symSize: 0x28 }
  - { offsetInCU: 0xFDA3, offset: 0xFDA3, size: 0x8, addend: 0x0, symName: __ZNKSt6vectorI10ServerInfoSaIS0_EE5beginEv, symObjAddr: 0x2304, symBinAddr: 0x10000561C, symSize: 0x24 }
  - { offsetInCU: 0xFDCD, offset: 0xFDCD, size: 0x8, addend: 0x0, symName: __ZNSt6vectorI10ServerInfoSaIS0_EE12emplace_backIJS0_EEERS0_DpOT_, symObjAddr: 0x2228, symBinAddr: 0x100005540, symSize: 0xDC }
  - { offsetInCU: 0xFE7E, offset: 0xFE7E, size: 0x8, addend: 0x0, symName: __ZSt4moveIR10ServerInfoEONSt16remove_referenceIT_E4typeEOS3_, symObjAddr: 0x2214, symBinAddr: 0x10000552C, symSize: 0x14 }
  - { offsetInCU: 0xFEC9, offset: 0xFEC9, size: 0x8, addend: 0x0, symName: __ZNSt8_Rb_treeINSt7__cxx1112basic_stringIcSt11char_traitsIcESaIcEEESt4pairIKS5_bESt10_Select1stIS8_ESt4lessIS5_ESaIS8_EE22_M_emplace_hint_uniqueIJRKSt21piecewise_construct_tSt5tupleIJRS7_EESJ_IJEEEEESt17_Rb_tree_iteratorIS8_ESt23_Rb_tree_const_iteratorIS8_EDpOT_, symObjAddr: 0x213C, symBinAddr: 0x100005454, symSize: 0xD8 }
  - { offsetInCU: 0x10003, offset: 0x10003, size: 0x8, addend: 0x0, symName: __ZNSt23_Rb_tree_const_iteratorISt4pairIKNSt7__cxx1112basic_stringIcSt11char_traitsIcESaIcEEEbEEC1ERKSt17_Rb_tree_iteratorIS8_E, symObjAddr: 0x2114, symBinAddr: 0x10000542C, symSize: 0x28 }
  - { offsetInCU: 0x1003B, offset: 0x1003B, size: 0x8, addend: 0x0, symName: __ZNSt5tupleIJRKNSt7__cxx1112basic_stringIcSt11char_traitsIcESaIcEEEEEC1ILb1ELb1EEES7_, symObjAddr: 0x20EC, symBinAddr: 0x100005404, symSize: 0x28 }
  - { offsetInCU: 0x10022, offset: 0x10022, size: 0x8, addend: 0x0, symName: __ZNKSt4lessINSt7__cxx1112basic_stringIcSt11char_traitsIcESaIcEEEEclERKS5_S8_, symObjAddr: 0x20C4, symBinAddr: 0x1000053DC, symSize: 0x28 }
  - { offsetInCU: 0x1006E, offset: 0x1006E, size: 0x8, addend: 0x0, symName: __ZNKSt17_Rb_tree_iteratorISt4pairIKNSt7__cxx1112basic_stringIcSt11char_traitsIcESaIcEEEbEEdeEv, symObjAddr: 0x20A4, symBinAddr: 0x1000053BC, symSize: 0x20 }
  - { offsetInCU: 0x10098, offset: 0x10098, size: 0x8, addend: 0x0, symName: __ZNKSt3mapINSt7__cxx1112basic_stringIcSt11char_traitsIcESaIcEEEbSt4lessIS5_ESaISt4pairIKS5_bEEE8key_compEv, symObjAddr: 0x2078, symBinAddr: 0x100005390, symSize: 0x2C }
  - { offsetInCU: 0x100C4, offset: 0x100C4, size: 0x8, addend: 0x0, symName: __ZSteqRKSt17_Rb_tree_iteratorISt4pairIKNSt7__cxx1112basic_stringIcSt11char_traitsIcESaIcEEEbEESB_, symObjAddr: 0x2048, symBinAddr: 0x100005360, symSize: 0x30 }
  - { offsetInCU: 0x10103, offset: 0x10103, size: 0x8, addend: 0x0, symName: __ZNSt3mapINSt7__cxx1112basic_stringIcSt11char_traitsIcESaIcEEEbSt4lessIS5_ESaISt4pairIKS5_bEEE3endEv, symObjAddr: 0x202C, symBinAddr: 0x100005344, symSize: 0x1C }
  - { offsetInCU: 0x1012D, offset: 0x1012D, size: 0x8, addend: 0x0, symName: __ZNSt3mapINSt7__cxx1112basic_stringIcSt11char_traitsIcESaIcEEEbSt4lessIS5_ESaISt4pairIKS5_bEEE11lower_boundERS9_, symObjAddr: 0x2008, symBinAddr: 0x100005320, symSize: 0x24 }
  - { offsetInCU: 0x1016A, offset: 0x1016A, size: 0x8, addend: 0x0, symName: __ZSt12__str_concatINSt7__cxx1112basic_stringIcSt11char_traitsIcESaIcEEEET_PKNS6_10value_typeENS6_9size_typeES9_SA_RKNS6_14allocator_typeE, symObjAddr: 0x1F28, symBinAddr: 0x100005240, symSize: 0xE0 }
  - { offsetInCU: 0x102BC, offset: 0x102BC, size: 0x8, addend: 0x0, symName: __ZNSt8_Rb_treeINSt7__cxx1112basic_stringIcSt11char_traitsIcESaIcEEESt4pairIKS5_bESt10_Select1stIS8_ESt4lessIS5_ESaIS8_EE8_M_beginEv, symObjAddr: 0x1F0C, symBinAddr: 0x100005224, symSize: 0x1C }
  - { offsetInCU: 0x102E6, offset: 0x102E6, size: 0x8, addend: 0x0, symName: __ZNSt8_Rb_treeINSt7__cxx1112basic_stringIcSt11char_traitsIcESaIcEEESt4pairIKS5_bESt10_Select1stIS8_ESt4lessIS5_ESaIS8_EE8_M_eraseEPSt13_Rb_tree_nodeIS8_E, symObjAddr: 0x1EA8, symBinAddr: 0x1000051C0, symSize: 0x64 }
  - { offsetInCU: 0x103D4, offset: 0x103D4, size: 0x8, addend: 0x0, symName: __ZNSt15__new_allocatorISt13_Rb_tree_nodeISt4pairIKNSt7__cxx1112basic_stringIcSt11char_traitsIcESaIcEEEbEEED2Ev, symObjAddr: 0x1E94, symBinAddr: 0x1000051AC, symSize: 0x14 }
  - { offsetInCU: 0x10404, offset: 0x10404, size: 0x8, addend: 0x0, symName: __ZNSt20_Rb_tree_key_compareISt4lessINSt7__cxx1112basic_stringIcSt11char_traitsIcESaIcEEEEEC2Ev, symObjAddr: 0x1E80, symBinAddr: 0x100005198, symSize: 0x14 }
  - { offsetInCU: 0x10420, offset: 0x10420, size: 0x8, addend: 0x0, symName: __ZNSt12_Vector_baseI10ServerInfoSaIS0_EE19_M_get_Tp_allocatorEv, symObjAddr: 0x1E6C, symBinAddr: 0x100005184, symSize: 0x14 }
  - { offsetInCU: 0x1044A, offset: 0x1044A, size: 0x8, addend: 0x0, symName: __ZNSt12_Vector_baseI10ServerInfoSaIS0_EE13_M_deallocateEPS0_m, symObjAddr: 0x1E14, symBinAddr: 0x10000512C, symSize: 0x58 }
  - { offsetInCU: 0x10515, offset: 0x10515, size: 0x8, addend: 0x0, symName: __ZNSt15__new_allocatorI10ServerInfoED2Ev, symObjAddr: 0x1E00, symBinAddr: 0x100005118, symSize: 0x14 }
  - { offsetInCU: 0x1056C, offset: 0x1056C, size: 0x8, addend: 0x0, symName: __ZNSt12_Vector_baseI10ServerInfoSaIS0_EE17_Vector_impl_dataC2Ev, symObjAddr: 0x1DD4, symBinAddr: 0x1000050EC, symSize: 0x2C }
  - { offsetInCU: 0x1056E, offset: 0x1056E, size: 0x8, addend: 0x0, symName: __ZSt4moveIRNSt7__cxx1112basic_stringIcSt11char_traitsIcESaIcEEEEONSt16remove_referenceIT_E4typeEOS8_, symObjAddr: 0x1DC0, symBinAddr: 0x1000050D8, symSize: 0x14 }
  - { offsetInCU: 0x105A4, offset: 0x105A4, size: 0x8, addend: 0x0, symName: __ZNSt7__cxx1112basic_stringIcSt11char_traitsIcESaIcEE12_M_constructIPKcEEvT_S8_St20forward_iterator_tag, symObjAddr: 0x1CC0, symBinAddr: 0x100004FD8, symSize: 0x100 }
  - { offsetInCU: 0x10721, offset: 0x10721, size: 0x8, addend: 0x0, symName: __ZZNSt7__cxx1112basic_stringIcSt11char_traitsIcESaIcEE12_M_constructIPKcEEvT_S8_St20forward_iterator_tagEN6_GuardC1EPS4_, symObjAddr: 0x1C68, symBinAddr: 0x100004F80, symSize: 0x24 }
  - { offsetInCU: 0x10752, offset: 0x10752, size: 0x8, addend: 0x0, symName: __ZZNSt7__cxx1112basic_stringIcSt11char_traitsIcESaIcEE12_M_constructIPKcEEvT_S8_St20forward_iterator_tagEN6_GuardD1Ev, symObjAddr: 0x1C8C, symBinAddr: 0x100004FA4, symSize: 0x34 }
  - { offsetInCU: 0x107F9, offset: 0x107F9, size: 0x8, addend: 0x0, symName: __ZNSt15__new_allocatorIcED2Ev, symObjAddr: 0x1C54, symBinAddr: 0x100004F6C, symSize: 0x14 }
  - { offsetInCU: 0x10833, offset: 0x10833, size: 0x8, addend: 0x0, symName: __ZSt4moveIRZNSt7__cxx119to_stringEiEUlPcmE_EONSt16remove_referenceIT_E4typeEOS5_, symObjAddr: 0x1C40, symBinAddr: 0x100004F58, symSize: 0x14 }
  - { offsetInCU: 0x1087B, offset: 0x1087B, size: 0x8, addend: 0x0, symName: __ZN9__gnu_cxx11char_traitsIcE2eqERKcS3_, symObjAddr: 0x1C10, symBinAddr: 0x100004F28, symSize: 0x30 }
  - { offsetInCU: 0x10913, offset: 0x10913, size: 0x8, addend: 0x0, symName: __ZNSt6threadC1IRFvvEJEvEEOT_DpOT0_, symObjAddr: 0x1B54, symBinAddr: 0x100004E6C, symSize: 0xBC }
  - { offsetInCU: 0x10946, offset: 0x10946, size: 0x8, addend: 0x0, symName: __ZNSt6vectorI10ServerInfoSaIS0_EEixEm, symObjAddr: 0x1B20, symBinAddr: 0x100004E38, symSize: 0x34 }
  - { offsetInCU: 0x10981, offset: 0x10981, size: 0x8, addend: 0x0, symName: __ZNKSt6vectorI10ServerInfoSaIS0_EE4sizeEv, symObjAddr: 0x1AE4, symBinAddr: 0x100004DFC, symSize: 0x3C }
  - { offsetInCU: 0x109AB, offset: 0x109AB, size: 0x8, addend: 0x0, symName: __ZNKSt6vectorI10ServerInfoSaIS0_EE5emptyEv, symObjAddr: 0x1AAC, symBinAddr: 0x100004DC4, symSize: 0x38 }
  - { offsetInCU: 0x109D5, offset: 0x109D5, size: 0x8, addend: 0x0, symName: __ZNSt6vectorI10ServerInfoSaIS0_EE9push_backEOS0_, symObjAddr: 0x1A7C, symBinAddr: 0x100004D94, symSize: 0x30 }
  - { offsetInCU: 0x10A10, offset: 0x10A10, size: 0x8, addend: 0x0, symName: __ZNSt3mapINSt7__cxx1112basic_stringIcSt11char_traitsIcESaIcEEEbSt4lessIS5_ESaISt4pairIKS5_bEEEixERS9_, symObjAddr: 0x1990, symBinAddr: 0x100004CA8, symSize: 0xEC }
  - { offsetInCU: 0x10A58, offset: 0x10A58, size: 0x8, addend: 0x0, symName: __ZStplIcSt11char_traitsIcESaIcEENSt7__cxx1112basic_stringIT_T0_T1_EEOS8_S9_, symObjAddr: 0x18A8, symBinAddr: 0x100004BC0, symSize: 0xE8 }
  - { offsetInCU: 0x10AE3, offset: 0x10AE3, size: 0x8, addend: 0x0, symName: __ZStplIcSt11char_traitsIcESaIcEENSt7__cxx1112basic_stringIT_T0_T1_EERKS8_PKS5_, symObjAddr: 0x17F8, symBinAddr: 0x100004B10, symSize: 0xB0 }
  - { offsetInCU: 0x10C08, offset: 0x10C08, size: 0x8, addend: 0x0, symName: __ZNSt7__cxx1112basic_stringIcSt11char_traitsIcESaIcEEC1IS3_EEPKcRKS3_, symObjAddr: 0x175C, symBinAddr: 0x100004A74, symSize: 0x9C }
  - { offsetInCU: 0x10CC8, offset: 0x10CC8, size: 0x8, addend: 0x0, symName: __ZNSt8_Rb_treeINSt7__cxx1112basic_stringIcSt11char_traitsIcESaIcEEESt4pairIKS5_bESt10_Select1stIS8_ESt4lessIS5_ESaIS8_EED1Ev, symObjAddr: 0x1728, symBinAddr: 0x100004A40, symSize: 0x34 }
  - { offsetInCU: 0x10D40, offset: 0x10D40, size: 0x8, addend: 0x0, symName: __ZNSt8_Rb_treeINSt7__cxx1112basic_stringIcSt11char_traitsIcESaIcEEESt4pairIKS5_bESt10_Select1stIS8_ESt4lessIS5_ESaIS8_EE13_Rb_tree_implISC_Lb1EEC1Ev, symObjAddr: 0x16E4, symBinAddr: 0x1000049FC, symSize: 0x44 }
  - { offsetInCU: 0x10D62, offset: 0x10D62, size: 0x8, addend: 0x0, symName: __ZNSt6vectorI10ServerInfoSaIS0_EED1Ev, symObjAddr: 0x1688, symBinAddr: 0x1000049A0, symSize: 0x5C }
  - { offsetInCU: 0x10DE9, offset: 0x10DE9, size: 0x8, addend: 0x0, symName: __ZNSt12_Vector_baseI10ServerInfoSaIS0_EED2Ev, symObjAddr: 0x1624, symBinAddr: 0x10000493C, symSize: 0x64 }
  - { offsetInCU: 0x10E57, offset: 0x10E57, size: 0x8, addend: 0x0, symName: __ZNSt12_Vector_baseI10ServerInfoSaIS0_EE12_Vector_implC1Ev, symObjAddr: 0x15EC, symBinAddr: 0x100004904, symSize: 0x38 }
  - { offsetInCU: 0x10EC2, offset: 0x10EC2, size: 0x8, addend: 0x0, symName: __ZNSt7__cxx1112basic_stringIcSt11char_traitsIcESaIcEE22__resize_and_overwriteIZNS_9to_stringEiEUlPcmE_EEvmT_, symObjAddr: 0x155C, symBinAddr: 0x100004874, symSize: 0x90 }
  - { offsetInCU: 0x11038, offset: 0x11038, size: 0x8, addend: 0x0, symName: __ZZNSt7__cxx1112basic_stringIcSt11char_traitsIcESaIcEE22__resize_and_overwriteIZNS_9to_stringEiEUlPcmE_EEvmT_EN11_TerminatorD1Ev, symObjAddr: 0x1528, symBinAddr: 0x100004840, symSize: 0x34 }
  - { offsetInCU: 0x11000, offset: 0x11000, size: 0x8, addend: 0x0, symName: __ZNSt8__detail18__to_chars_10_implIjEEvPcjT_, symObjAddr: 0x1374, symBinAddr: 0x10000468C, symSize: 0x1B4 }
  - { offsetInCU: 0x11137, offset: 0x11137, size: 0x8, addend: 0x0, symName: __ZNSt7__cxx1112basic_stringIcSt11char_traitsIcESaIcEE12_Alloc_hiderD1Ev, symObjAddr: 0x1348, symBinAddr: 0x100004660, symSize: 0x2C }
  - { offsetInCU: 0x11159, offset: 0x11159, size: 0x8, addend: 0x0, symName: __ZN9__gnu_cxx6__stoaIlicJiEEET0_PFT_PKT1_PPS3_DpT2_EPKcS5_PmS9_, symObjAddr: 0x1244, symBinAddr: 0x10000455C, symSize: 0x104 }
  - { offsetInCU: 0x112E7, offset: 0x112E7, size: 0x8, addend: 0x0, symName: __ZZN9__gnu_cxx6__stoaIlicJiEEET0_PFT_PKT1_PPS3_DpT2_EPKcS5_PmS9_EN11_Save_errnoC1Ev, symObjAddr: 0x1184, symBinAddr: 0x10000449C, symSize: 0x30 }
  - { offsetInCU: 0x11312, offset: 0x11312, size: 0x8, addend: 0x0, symName: __ZZN9__gnu_cxx6__stoaIlicJiEEET0_PFT_PKT1_PPS3_DpT2_EPKcS5_PmS9_EN11_Save_errnoD1Ev, symObjAddr: 0x11B4, symBinAddr: 0x1000044CC, symSize: 0x50 }
  - { offsetInCU: 0x11397, offset: 0x11397, size: 0x8, addend: 0x0, symName: __ZZN9__gnu_cxx6__stoaIlicJiEEET0_PFT_PKT1_PPS3_DpT2_EPKcS5_PmS9_EN10_Range_chk6_S_chkElSt17integral_constantIbLb1EE, symObjAddr: 0x1204, symBinAddr: 0x10000451C, symSize: 0x40 }
  - { offsetInCU: 0x11367, offset: 0x11367, size: 0x8, addend: 0x0, symName: __ZN9__gnu_cxx11char_traitsIcE6lengthEPKc, symObjAddr: 0x112C, symBinAddr: 0x100004444, symSize: 0x58 }
  - { offsetInCU: 0x113A9, offset: 0x113A9, size: 0x8, addend: 0x0, symName: _main, symObjAddr: 0xBF0, symBinAddr: 0x100003F08, symSize: 0x53C }
  - { offsetInCU: 0x11476, offset: 0x11476, size: 0x8, addend: 0x0, symName: __ZN10ServerInfoC1ERKS_, symObjAddr: 0xB80, symBinAddr: 0x100003E98, symSize: 0x70 }
  - { offsetInCU: 0x114B9, offset: 0x114B9, size: 0x8, addend: 0x0, symName: __Z16discover_serversv, symObjAddr: 0x620, symBinAddr: 0x100003938, symSize: 0x560 }
  - { offsetInCU: 0x1178F, offset: 0x1178F, size: 0x8, addend: 0x0, symName: __ZN10ServerInfoD1Ev, symObjAddr: 0x5F4, symBinAddr: 0x10000390C, symSize: 0x2C }
  - { offsetInCU: 0x11828, offset: 0x11828, size: 0x8, addend: 0x0, symName: __ZNSt3mapINSt7__cxx1112basic_stringIcSt11char_traitsIcESaIcEEEbSt4lessIS5_ESaISt4pairIKS5_bEEED1Ev, symObjAddr: 0x5D4, symBinAddr: 0x1000038EC, symSize: 0x20 }
  - { offsetInCU: 0x11868, offset: 0x11868, size: 0x8, addend: 0x0, symName: __ZNSt3mapINSt7__cxx1112basic_stringIcSt11char_traitsIcESaIcEEEbSt4lessIS5_ESaISt4pairIKS5_bEEEC1Ev, symObjAddr: 0x5B4, symBinAddr: 0x1000038CC, symSize: 0x20 }
  - { offsetInCU: 0x118C2, offset: 0x118C2, size: 0x8, addend: 0x0, symName: __ZNSt8_Rb_treeINSt7__cxx1112basic_stringIcSt11char_traitsIcESaIcEEESt4pairIKS5_bESt10_Select1stIS8_ESt4lessIS5_ESaIS8_EEC1Ev, symObjAddr: 0x594, symBinAddr: 0x1000038AC, symSize: 0x20 }
  - { offsetInCU: 0x11928, offset: 0x11928, size: 0x8, addend: 0x0, symName: __ZNSt8_Rb_treeINSt7__cxx1112basic_stringIcSt11char_traitsIcESaIcEEESt4pairIKS5_bESt10_Select1stIS8_ESt4lessIS5_ESaIS8_EE13_Rb_tree_implISC_Lb1EED1Ev, symObjAddr: 0x568, symBinAddr: 0x100003880, symSize: 0x2C }
  - { offsetInCU: 0x1191D, offset: 0x1191D, size: 0x8, addend: 0x0, symName: __ZNSt6vectorI10ServerInfoSaIS0_EEC1Ev, symObjAddr: 0x548, symBinAddr: 0x100003860, symSize: 0x20 }
  - { offsetInCU: 0x11964, offset: 0x11964, size: 0x8, addend: 0x0, symName: __ZNSt12_Vector_baseI10ServerInfoSaIS0_EEC2Ev, symObjAddr: 0x528, symBinAddr: 0x100003840, symSize: 0x20 }
  - { offsetInCU: 0x119BF, offset: 0x119BF, size: 0x8, addend: 0x0, symName: __ZNSt12_Vector_baseI10ServerInfoSaIS0_EE12_Vector_implD1Ev, symObjAddr: 0x4FC, symBinAddr: 0x100003814, symSize: 0x2C }
  - { offsetInCU: 0x119F4, offset: 0x119F4, size: 0x8, addend: 0x0, symName: __Z16receive_messagesv, symObjAddr: 0x3FC, symBinAddr: 0x100003714, symSize: 0x100 }
  - { offsetInCU: 0x11A51, offset: 0x11A51, size: 0x8, addend: 0x0, symName: __Z14signal_handleri, symObjAddr: 0x3DC, symBinAddr: 0x1000036F4, symSize: 0x20 }
  - { offsetInCU: 0x11A62, offset: 0x11A62, size: 0x8, addend: 0x0, symName: __ZNSt15_Rb_tree_header8_M_resetEv, symObjAddr: 0x3A0, symBinAddr: 0x1000036B8, symSize: 0x3C }
  - { offsetInCU: 0x11ABD, offset: 0x11ABD, size: 0x8, addend: 0x0, symName: __ZNSt15_Rb_tree_headerC2Ev, symObjAddr: 0x378, symBinAddr: 0x100003690, symSize: 0x28 }
  - { offsetInCU: 0x11B29, offset: 0x11B29, size: 0x8, addend: 0x0, symName: __ZSteqNSt6thread2idES0_, symObjAddr: 0x350, symBinAddr: 0x100003668, symSize: 0x28 }
  - { offsetInCU: 0x11B68, offset: 0x11B68, size: 0x8, addend: 0x0, symName: __ZNKSt6thread8joinableEv, symObjAddr: 0x31C, symBinAddr: 0x100003634, symSize: 0x34 }
  - { offsetInCU: 0x11BC3, offset: 0x11BC3, size: 0x8, addend: 0x0, symName: __ZNSt6threadD1Ev, symObjAddr: 0x2EC, symBinAddr: 0x100003604, symSize: 0x30 }
  - { offsetInCU: 0x11BF2, offset: 0x11BF2, size: 0x8, addend: 0x0, symName: __ZNSt6thread24_M_thread_deps_never_runEv, symObjAddr: 0x2E4, symBinAddr: 0x1000035FC, symSize: 0x8 }
  - { offsetInCU: 0x11C37, offset: 0x11C37, size: 0x8, addend: 0x0, symName: __ZNSt6thread2idC1Ev, symObjAddr: 0x2C8, symBinAddr: 0x1000035E0, symSize: 0x1C }
  - { offsetInCU: 0x11C49, offset: 0x11C49, size: 0x8, addend: 0x0, symName: __ZNSt8__detail14__to_chars_lenIjEEjT_i, symObjAddr: 0x1F0, symBinAddr: 0x100003508, symSize: 0xD8 }
  - { offsetInCU: 0x11CCB, offset: 0x11CCB, size: 0x8, addend: 0x0, symName: __ZNSt7__cxx119to_stringEi, symObjAddr: 0x144, symBinAddr: 0x10000345C, symSize: 0xAC }
  - { offsetInCU: 0x11D8C, offset: 0x11D8C, size: 0x8, addend: 0x0, symName: __ZZNSt7__cxx119to_stringEiENKUlPcmE_clES0_m, symObjAddr: 0xE8, symBinAddr: 0x100003400, symSize: 0x5C }
  - { offsetInCU: 0x11E0F, offset: 0x11E0F, size: 0x8, addend: 0x0, symName: __ZNSt7__cxx114stoiERKNS_12basic_stringIcSt11char_traitsIcESaIcEEEPmi, symObjAddr: 0xA4, symBinAddr: 0x1000033BC, symSize: 0x44 }
  - { offsetInCU: 0x11E6C, offset: 0x11E6C, size: 0x8, addend: 0x0, symName: __ZL12_OSSwapInt16t, symObjAddr: 0x6C, symBinAddr: 0x100003384, symSize: 0x38 }
  - { offsetInCU: 0x11E8B, offset: 0x11E8B, size: 0x8, addend: 0x0, symName: __ZNSt11char_traitsIcE6lengthEPKc, symObjAddr: 0x30, symBinAddr: 0x100003348, symSize: 0x3C }
  - { offsetInCU: 0x11EDC, offset: 0x11EDC, size: 0x8, addend: 0x0, symName: __ZdlPvS_, symObjAddr: 0x18, symBinAddr: 0x100003330, symSize: 0x18 }
  - { offsetInCU: 0x11F11, offset: 0x11F11, size: 0x8, addend: 0x0, symName: __ZnwmPv, symObjAddr: 0x0, symBinAddr: 0x100003318, symSize: 0x18 }
...
