---
triple:          'arm64-apple-darwin'
binary-path:     '/Users/leonidmarkevic/Desktop/labs/Computer networks labs c++/lab3/server'
relocations:
  - { offsetInCU: 0xADC8, offset: 0xADC8, size: 0x8, addend: 0x0, symName: __ZStL8__ioinit, symObjAddr: 0x5C000, symBinAddr: 0x100010044, symSize: 0x0 }
  - { offsetInCU: 0xB3A2, offset: 0xB3A2, size: 0x8, addend: 0x0, symName: _clients, symObjAddr: 0x5C008, symBinAddr: 0x100010048, symSize: 0x0 }
  - { offsetInCU: 0xB3BF, offset: 0xB3BF, size: 0x8, addend: 0x0, symName: _clients_mutex, symObjAddr: 0x4630, symBinAddr: 0x100010000, symSize: 0x0 }
  - { offsetInCU: 0xB3D7, offset: 0xB3D7, size: 0x8, addend: 0x0, symName: _server_running, symObjAddr: 0x4670, symBinAddr: 0x100010040, symSize: 0x0 }
  - { offsetInCU: 0xB90F, offset: 0xB90F, size: 0x8, addend: 0x0, symName: __ZNSt10_Head_baseILm2EiLb0EE7_M_headERS0_, symObjAddr: 0x421C, symBinAddr: 0x100007A94, symSize: 0x14 }
  - { offsetInCU: 0xB938, offset: 0xB938, size: 0x8, addend: 0x0, symName: __ZNSt10_Head_baseILm1ENSt7__cxx1112basic_stringIcSt11char_traitsIcESaIcEEELb0EE7_M_headERS6_, symObjAddr: 0x4208, symBinAddr: 0x100007A80, symSize: 0x14 }
  - { offsetInCU: 0xB965, offset: 0xB965, size: 0x8, addend: 0x0, symName: __ZNSt10_Head_baseILm0EPFvRKNSt7__cxx1112basic_stringIcSt11char_traitsIcESaIcEEEiELb0EE7_M_headERSA_, symObjAddr: 0x41F4, symBinAddr: 0x100007A6C, symSize: 0x14 }
  - { offsetInCU: 0xB98E, offset: 0xB98E, size: 0x8, addend: 0x0, symName: __ZNSt10_Head_baseILm1EiLb0EE7_M_headERS0_, symObjAddr: 0x41E0, symBinAddr: 0x100007A58, symSize: 0x14 }
  - { offsetInCU: 0xB9BB, offset: 0xB9BB, size: 0x8, addend: 0x0, symName: __ZNSt10_Head_baseILm0EPFviELb0EE7_M_headERS2_, symObjAddr: 0x41CC, symBinAddr: 0x100007A44, symSize: 0x14 }
  - { offsetInCU: 0xB9E4, offset: 0xB9E4, size: 0x8, addend: 0x0, symName: __ZNSt11_Tuple_implILm2EJiEE7_M_headERS0_, symObjAddr: 0x41B0, symBinAddr: 0x100007A28, symSize: 0x1C }
  - { offsetInCU: 0xBA0E, offset: 0xBA0E, size: 0x8, addend: 0x0, symName: __ZNSt11_Tuple_implILm1EJNSt7__cxx1112basic_stringIcSt11char_traitsIcESaIcEEEiEE7_M_headERS6_, symObjAddr: 0x4190, symBinAddr: 0x100007A08, symSize: 0x20 }
  - { offsetInCU: 0xBA3C, offset: 0xBA3C, size: 0x8, addend: 0x0, symName: __ZNSt11_Tuple_implILm0EJPFvRKNSt7__cxx1112basic_stringIcSt11char_traitsIcESaIcEEEiES5_iEE7_M_headERSA_, symObjAddr: 0x4170, symBinAddr: 0x1000079E8, symSize: 0x20 }
  - { offsetInCU: 0xBA66, offset: 0xBA66, size: 0x8, addend: 0x0, symName: __ZNSt11_Tuple_implILm1EJiEE7_M_headERS0_, symObjAddr: 0x4154, symBinAddr: 0x1000079CC, symSize: 0x1C }
  - { offsetInCU: 0xBA94, offset: 0xBA94, size: 0x8, addend: 0x0, symName: __ZNSt11_Tuple_implILm0EJPFviEiEE7_M_headERS2_, symObjAddr: 0x4134, symBinAddr: 0x1000079AC, symSize: 0x20 }
  - { offsetInCU: 0xBACC, offset: 0xBACC, size: 0x8, addend: 0x0, symName: __ZSt13__invoke_implIvPFvRKNSt7__cxx1112basic_stringIcSt11char_traitsIcESaIcEEEiEJS5_iEET_St14__invoke_otherOT0_DpOT1_, symObjAddr: 0x40D8, symBinAddr: 0x100007950, symSize: 0x5C }
  - { offsetInCU: 0xBB34, offset: 0xBB34, size: 0x8, addend: 0x0, symName: __ZSt12__get_helperILm2EiJEERT0_RSt11_Tuple_implIXT_EJS0_DpT1_EE, symObjAddr: 0x40BC, symBinAddr: 0x100007934, symSize: 0x1C }
  - { offsetInCU: 0xBB7C, offset: 0xBB7C, size: 0x8, addend: 0x0, symName: __ZSt7forwardINSt7__cxx1112basic_stringIcSt11char_traitsIcESaIcEEEEOT_RNSt16remove_referenceIS6_E4typeE, symObjAddr: 0x40A8, symBinAddr: 0x100007920, symSize: 0x14 }
  - { offsetInCU: 0xBBAE, offset: 0xBBAE, size: 0x8, addend: 0x0, symName: __ZSt12__get_helperILm1ENSt7__cxx1112basic_stringIcSt11char_traitsIcESaIcEEEJiEERT0_RSt11_Tuple_implIXT_EJS6_DpT1_EE, symObjAddr: 0x408C, symBinAddr: 0x100007904, symSize: 0x1C }
  - { offsetInCU: 0xBC00, offset: 0xBC00, size: 0x8, addend: 0x0, symName: __ZSt7forwardIPFvRKNSt7__cxx1112basic_stringIcSt11char_traitsIcESaIcEEEiEEOT_RNSt16remove_referenceISA_E4typeE, symObjAddr: 0x4078, symBinAddr: 0x1000078F0, symSize: 0x14 }
  - { offsetInCU: 0xBC36, offset: 0xBC36, size: 0x8, addend: 0x0, symName: __ZSt12__get_helperILm0EPFvRKNSt7__cxx1112basic_stringIcSt11char_traitsIcESaIcEEEiEJS5_iEERT0_RSt11_Tuple_implIXT_EJSA_DpT1_EE, symObjAddr: 0x405C, symBinAddr: 0x1000078D4, symSize: 0x1C }
  - { offsetInCU: 0xBC8A, offset: 0xBC8A, size: 0x8, addend: 0x0, symName: __ZSt13__invoke_implIvPFviEJiEET_St14__invoke_otherOT0_DpOT1_, symObjAddr: 0x4018, symBinAddr: 0x100007890, symSize: 0x44 }
  - { offsetInCU: 0xBCE4, offset: 0xBCE4, size: 0x8, addend: 0x0, symName: __ZSt12__get_helperILm1EiJEERT0_RSt11_Tuple_implIXT_EJS0_DpT1_EE, symObjAddr: 0x3FFC, symBinAddr: 0x100007874, symSize: 0x1C }
  - { offsetInCU: 0xBD30, offset: 0xBD30, size: 0x8, addend: 0x0, symName: __ZSt7forwardIPFviEEOT_RNSt16remove_referenceIS2_E4typeE, symObjAddr: 0x3FE8, symBinAddr: 0x100007860, symSize: 0x14 }
  - { offsetInCU: 0xBD66, offset: 0xBD66, size: 0x8, addend: 0x0, symName: __ZSt12__get_helperILm0EPFviEJiEERT0_RSt11_Tuple_implIXT_EJS2_DpT1_EE, symObjAddr: 0x3FCC, symBinAddr: 0x100007844, symSize: 0x1C }
  - { offsetInCU: 0xBDAE, offset: 0xBDAE, size: 0x8, addend: 0x0, symName: __ZSt8__invokeIPFvRKNSt7__cxx1112basic_stringIcSt11char_traitsIcESaIcEEEiEJS5_iEENSt15__invoke_resultIT_JDpT0_EE4typeEOSB_DpOSC_, symObjAddr: 0x3F68, symBinAddr: 0x1000077E0, symSize: 0x64 }
  - { offsetInCU: 0xBE0F, offset: 0xBE0F, size: 0x8, addend: 0x0, symName: __ZSt3getILm2EJPFvRKNSt7__cxx1112basic_stringIcSt11char_traitsIcESaIcEEEiES5_iEEONSt13tuple_elementIXT_ESt5tupleIJDpT0_EEE4typeEOSE_, symObjAddr: 0x3F48, symBinAddr: 0x1000077C0, symSize: 0x20 }
  - { offsetInCU: 0xBE5F, offset: 0xBE5F, size: 0x8, addend: 0x0, symName: __ZSt3getILm1EJPFvRKNSt7__cxx1112basic_stringIcSt11char_traitsIcESaIcEEEiES5_iEEONSt13tuple_elementIXT_ESt5tupleIJDpT0_EEE4typeEOSE_, symObjAddr: 0x3F28, symBinAddr: 0x1000077A0, symSize: 0x20 }
  - { offsetInCU: 0xBEAF, offset: 0xBEAF, size: 0x8, addend: 0x0, symName: __ZSt3getILm0EJPFvRKNSt7__cxx1112basic_stringIcSt11char_traitsIcESaIcEEEiES5_iEEONSt13tuple_elementIXT_ESt5tupleIJDpT0_EEE4typeEOSE_, symObjAddr: 0x3F08, symBinAddr: 0x100007780, symSize: 0x20 }
  - { offsetInCU: 0xBEFF, offset: 0xBEFF, size: 0x8, addend: 0x0, symName: __ZSt4moveIRSt5tupleIJPFvRKNSt7__cxx1112basic_stringIcSt11char_traitsIcESaIcEEEiES6_iEEEONSt16remove_referenceIT_E4typeEOSE_, symObjAddr: 0x3EF4, symBinAddr: 0x10000776C, symSize: 0x14 }
  - { offsetInCU: 0xBF31, offset: 0xBF31, size: 0x8, addend: 0x0, symName: __ZSt8__invokeIPFviEJiEENSt15__invoke_resultIT_JDpT0_EE4typeEOS3_DpOS4_, symObjAddr: 0x3EAC, symBinAddr: 0x100007724, symSize: 0x48 }
  - { offsetInCU: 0xBF84, offset: 0xBF84, size: 0x8, addend: 0x0, symName: __ZSt3getILm1EJPFviEiEEONSt13tuple_elementIXT_ESt5tupleIJDpT0_EEE4typeEOS6_, symObjAddr: 0x3E8C, symBinAddr: 0x100007704, symSize: 0x20 }
  - { offsetInCU: 0xBFCF, offset: 0xBFCF, size: 0x8, addend: 0x0, symName: __ZSt3getILm0EJPFviEiEEONSt13tuple_elementIXT_ESt5tupleIJDpT0_EEE4typeEOS6_, symObjAddr: 0x3E6C, symBinAddr: 0x1000076E4, symSize: 0x20 }
  - { offsetInCU: 0xC01A, offset: 0xC01A, size: 0x8, addend: 0x0, symName: __ZSt4moveIRSt5tupleIJPFviEiEEEONSt16remove_referenceIT_E4typeEOS6_, symObjAddr: 0x3E58, symBinAddr: 0x1000076D0, symSize: 0x14 }
  - { offsetInCU: 0xC050, offset: 0xC050, size: 0x8, addend: 0x0, symName: __ZNSt6thread8_InvokerISt5tupleIJPFvRKNSt7__cxx1112basic_stringIcSt11char_traitsIcESaIcEEEiES7_iEEE9_M_invokeIJLm0ELm1ELm2EEEEvSt12_Index_tupleIJXspT_EEE, symObjAddr: 0x3DF8, symBinAddr: 0x100007670, symSize: 0x60 }
  - { offsetInCU: 0xC09F, offset: 0xC09F, size: 0x8, addend: 0x0, symName: __ZNSt6thread8_InvokerISt5tupleIJPFviEiEEE9_M_invokeIJLm0ELm1EEEEvSt12_Index_tupleIJXspT_EEE, symObjAddr: 0x3DAC, symBinAddr: 0x100007624, symSize: 0x4C }
  - { offsetInCU: 0xC0E8, offset: 0xC0E8, size: 0x8, addend: 0x0, symName: __ZNSt6thread8_InvokerISt5tupleIJPFvRKNSt7__cxx1112basic_stringIcSt11char_traitsIcESaIcEEEiES7_iEEEclEv, symObjAddr: 0x3D8C, symBinAddr: 0x100007604, symSize: 0x20 }
  - { offsetInCU: 0xC112, offset: 0xC112, size: 0x8, addend: 0x0, symName: __ZNSt6thread8_InvokerISt5tupleIJPFviEiEEEclEv, symObjAddr: 0x3D6C, symBinAddr: 0x1000075E4, symSize: 0x20 }
  - { offsetInCU: 0xC182, offset: 0xC182, size: 0x8, addend: 0x0, symName: __ZNSt6vectorI10ClientInfoSaIS0_EED1Ev, symObjAddr: 0x3D10, symBinAddr: 0x100007588, symSize: 0x5C }
  - { offsetInCU: 0xC1BC, offset: 0xC1BC, size: 0x8, addend: 0x0, symName: __ZNSt6thread11_State_implINS_8_InvokerISt5tupleIJPFvRKNSt7__cxx1112basic_stringIcSt11char_traitsIcESaIcEEEiES8_iEEEEE6_M_runEv, symObjAddr: 0x3CEC, symBinAddr: 0x100007564, symSize: 0x24 }
  - { offsetInCU: 0xC1E6, offset: 0xC1E6, size: 0x8, addend: 0x0, symName: __ZNSt6thread11_State_implINS_8_InvokerISt5tupleIJPFviEiEEEEE6_M_runEv, symObjAddr: 0x3CC8, symBinAddr: 0x100007540, symSize: 0x24 }
  - { offsetInCU: 0xC2AD, offset: 0xC2AD, size: 0x8, addend: 0x0, symName: __ZNSt6thread11_State_implINS_8_InvokerISt5tupleIJPFvRKNSt7__cxx1112basic_stringIcSt11char_traitsIcESaIcEEEiES8_iEEEEED0Ev, symObjAddr: 0x3CA0, symBinAddr: 0x100007518, symSize: 0x28 }
  - { offsetInCU: 0xC2D7, offset: 0xC2D7, size: 0x8, addend: 0x0, symName: __ZNSt6thread11_State_implINS_8_InvokerISt5tupleIJPFvRKNSt7__cxx1112basic_stringIcSt11char_traitsIcESaIcEEEiES8_iEEEEED1Ev, symObjAddr: 0x3C60, symBinAddr: 0x1000074D8, symSize: 0x40 }
  - { offsetInCU: 0xC2EB, offset: 0xC2EB, size: 0x8, addend: 0x0, symName: __ZNSt6thread11_State_implINS_8_InvokerISt5tupleIJPFviEiEEEEED0Ev, symObjAddr: 0x3C38, symBinAddr: 0x1000074B0, symSize: 0x28 }
  - { offsetInCU: 0xC315, offset: 0xC315, size: 0x8, addend: 0x0, symName: __ZNSt6thread11_State_implINS_8_InvokerISt5tupleIJPFviEiEEEEED1Ev, symObjAddr: 0x3C04, symBinAddr: 0x10000747C, symSize: 0x34 }
  - { offsetInCU: 0xC326, offset: 0xC326, size: 0x8, addend: 0x0, symName: __ZNSt10_Head_baseILm1ESt14default_deleteINSt6thread6_StateEELb1EE7_M_headERS4_, symObjAddr: 0x3BF0, symBinAddr: 0x100007468, symSize: 0x14 }
  - { offsetInCU: 0xC3A6, offset: 0xC3A6, size: 0x8, addend: 0x0, symName: __ZNSt10_Head_baseILm2EiLb0EEC2IRiEEOT_, symObjAddr: 0x3BC0, symBinAddr: 0x100007438, symSize: 0x30 }
  - { offsetInCU: 0xC451, offset: 0xC451, size: 0x8, addend: 0x0, symName: __ZNSt10_Head_baseILm1EiLb0EEC2IRiEEOT_, symObjAddr: 0x3B90, symBinAddr: 0x100007408, symSize: 0x30 }
  - { offsetInCU: 0xC462, offset: 0xC462, size: 0x8, addend: 0x0, symName: __ZNSt11_Tuple_implILm1EJSt14default_deleteINSt6thread6_StateEEEE7_M_headERS4_, symObjAddr: 0x3B74, symBinAddr: 0x1000073EC, symSize: 0x1C }
  - { offsetInCU: 0xC48C, offset: 0xC48C, size: 0x8, addend: 0x0, symName: __ZNSt10_Head_baseILm0EPNSt6thread6_StateELb0EE7_M_headERS3_, symObjAddr: 0x3B60, symBinAddr: 0x1000073D8, symSize: 0x14 }
  - { offsetInCU: 0xC515, offset: 0xC515, size: 0x8, addend: 0x0, symName: __ZNSt10_Head_baseILm1ESt14default_deleteINSt6thread6_StateEELb1EEC2Ev, symObjAddr: 0x3B4C, symBinAddr: 0x1000073C4, symSize: 0x14 }
  - { offsetInCU: 0xC581, offset: 0xC581, size: 0x8, addend: 0x0, symName: __ZNSt10_Head_baseILm1ENSt7__cxx1112basic_stringIcSt11char_traitsIcESaIcEEELb0EEC2IRS5_EEOT_, symObjAddr: 0x3B10, symBinAddr: 0x100007388, symSize: 0x3C }
  - { offsetInCU: 0xC5B4, offset: 0xC5B4, size: 0x8, addend: 0x0, symName: __ZNSt11_Tuple_implILm2EJiEEC2IRiEEOT_, symObjAddr: 0x3AD4, symBinAddr: 0x10000734C, symSize: 0x3C }
  - { offsetInCU: 0xC5C6, offset: 0xC5C6, size: 0x8, addend: 0x0, symName: __ZSt8_DestroyI10ClientInfoEvPT_, symObjAddr: 0x3AB4, symBinAddr: 0x10000732C, symSize: 0x20 }
  - { offsetInCU: 0xC5F8, offset: 0xC5F8, size: 0x8, addend: 0x0, symName: __ZNSt11__copy_moveILb1ELb0ESt26random_access_iterator_tagE8__copy_mIP10ClientInfoS4_EET0_T_S6_S5_, symObjAddr: 0x3A2C, symBinAddr: 0x1000072A4, symSize: 0x88 }
  - { offsetInCU: 0xC687, offset: 0xC687, size: 0x8, addend: 0x0, symName: __ZSt19__relocate_object_aI10ClientInfoS0_SaIS0_EEvPT_PT0_RT1_, symObjAddr: 0x395C, symBinAddr: 0x1000071D4, symSize: 0xD0 }
  - { offsetInCU: 0xC7B9, offset: 0xC7B9, size: 0x8, addend: 0x0, symName: __ZSt11__addressofI10ClientInfoEPT_RS1_, symObjAddr: 0x3948, symBinAddr: 0x1000071C0, symSize: 0x14 }
  - { offsetInCU: 0xC851, offset: 0xC851, size: 0x8, addend: 0x0, symName: __ZNSt10_Head_baseILm0EPFviELb0EEC2ERKS1_, symObjAddr: 0x3920, symBinAddr: 0x100007198, symSize: 0x28 }
  - { offsetInCU: 0xC8AE, offset: 0xC8AE, size: 0x8, addend: 0x0, symName: __ZNSt11_Tuple_implILm1EJiEEC2IRiEEOT_, symObjAddr: 0x38E4, symBinAddr: 0x10000715C, symSize: 0x3C }
  - { offsetInCU: 0xC8C0, offset: 0xC8C0, size: 0x8, addend: 0x0, symName: __ZSt12__get_helperILm1ESt14default_deleteINSt6thread6_StateEEJEERT0_RSt11_Tuple_implIXT_EJS4_DpT1_EE, symObjAddr: 0x38C8, symBinAddr: 0x100007140, symSize: 0x1C }
  - { offsetInCU: 0xC902, offset: 0xC902, size: 0x8, addend: 0x0, symName: __ZNSt11_Tuple_implILm0EJPNSt6thread6_StateESt14default_deleteIS1_EEE7_M_headERS5_, symObjAddr: 0x38AC, symBinAddr: 0x100007124, symSize: 0x1C }
  - { offsetInCU: 0xC979, offset: 0xC979, size: 0x8, addend: 0x0, symName: __ZNSt10_Head_baseILm0EPNSt6thread6_StateELb0EEC2Ev, symObjAddr: 0x3890, symBinAddr: 0x100007108, symSize: 0x1C }
  - { offsetInCU: 0xC9CB, offset: 0xC9CB, size: 0x8, addend: 0x0, symName: __ZNSt11_Tuple_implILm1EJSt14default_deleteINSt6thread6_StateEEEEC2Ev, symObjAddr: 0x3870, symBinAddr: 0x1000070E8, symSize: 0x20 }
  - { offsetInCU: 0xCA32, offset: 0xCA32, size: 0x8, addend: 0x0, symName: __ZNSt10_Head_baseILm0EPFvRKNSt7__cxx1112basic_stringIcSt11char_traitsIcESaIcEEEiELb0EEC2ERKS9_, symObjAddr: 0x3848, symBinAddr: 0x1000070C0, symSize: 0x28 }
  - { offsetInCU: 0xCAB1, offset: 0xCAB1, size: 0x8, addend: 0x0, symName: __ZNSt11_Tuple_implILm1EJNSt7__cxx1112basic_stringIcSt11char_traitsIcESaIcEEEiEEC2IRS5_JRiEvEEOT_DpOT0_, symObjAddr: 0x37EC, symBinAddr: 0x100007064, symSize: 0x5C }
  - { offsetInCU: 0xCA9D, offset: 0xCA9D, size: 0x8, addend: 0x0, symName: __ZNSt12_Destroy_auxILb0EE9__destroyIP10ClientInfoEEvT_S4_, symObjAddr: 0x37A0, symBinAddr: 0x100007018, symSize: 0x4C }
  - { offsetInCU: 0xCADF, offset: 0xCADF, size: 0x8, addend: 0x0, symName: __ZSt14__copy_move_a2ILb1EP10ClientInfoS1_ET1_T0_S3_S2_, symObjAddr: 0x3774, symBinAddr: 0x100006FEC, symSize: 0x2C }
  - { offsetInCU: 0xCB47, offset: 0xCB47, size: 0x8, addend: 0x0, symName: __ZSt14__relocate_a_1IP10ClientInfoS1_SaIS0_EET0_T_S4_S3_RT1_, symObjAddr: 0x36F0, symBinAddr: 0x100006F68, symSize: 0x84 }
  - { offsetInCU: 0xCBD0, offset: 0xCBD0, size: 0x8, addend: 0x0, symName: __ZSt12__niter_baseIP10ClientInfoET_S2_, symObjAddr: 0x36DC, symBinAddr: 0x100006F54, symSize: 0x14 }
  - { offsetInCU: 0xCC07, offset: 0xCC07, size: 0x8, addend: 0x0, symName: __ZNSt15__new_allocatorI10ClientInfoE8allocateEmPKv, symObjAddr: 0x364C, symBinAddr: 0x100006EC4, symSize: 0x90 }
  - { offsetInCU: 0xCC93, offset: 0xCC93, size: 0x8, addend: 0x0, symName: __ZNKSt12_Vector_baseI10ClientInfoSaIS0_EE19_M_get_Tp_allocatorEv, symObjAddr: 0x3638, symBinAddr: 0x100006EB0, symSize: 0x14 }
  - { offsetInCU: 0xCCB9, offset: 0xCCB9, size: 0x8, addend: 0x0, symName: __ZNSt6vectorI10ClientInfoSaIS0_EE11_S_max_sizeERKS1_, symObjAddr: 0x35DC, symBinAddr: 0x100006E54, symSize: 0x5C }
  - { offsetInCU: 0xCDF6, offset: 0xCDF6, size: 0x8, addend: 0x0, symName: __ZNSt11_Tuple_implILm0EJPFviEiEEC2IRS0_JRiEvEEOT_DpOT0_, symObjAddr: 0x3578, symBinAddr: 0x100006DF0, symSize: 0x64 }
  - { offsetInCU: 0xCE17, offset: 0xCE17, size: 0x8, addend: 0x0, symName: __ZSt3getILm1EJPNSt6thread6_StateESt14default_deleteIS1_EEERNSt13tuple_elementIXT_ESt5tupleIJDpT0_EEE4typeERS9_, symObjAddr: 0x355C, symBinAddr: 0x100006DD4, symSize: 0x1C }
  - { offsetInCU: 0xCE5B, offset: 0xCE5B, size: 0x8, addend: 0x0, symName: __ZSt12__get_helperILm0EPNSt6thread6_StateEJSt14default_deleteIS1_EEERT0_RSt11_Tuple_implIXT_EJS5_DpT1_EE, symObjAddr: 0x3540, symBinAddr: 0x100006DB8, symSize: 0x1C }
  - { offsetInCU: 0xCF06, offset: 0xCF06, size: 0x8, addend: 0x0, symName: __ZNSt11_Tuple_implILm0EJPNSt6thread6_StateESt14default_deleteIS1_EEEC2Ev, symObjAddr: 0x3518, symBinAddr: 0x100006D90, symSize: 0x28 }
  - { offsetInCU: 0xCFB0, offset: 0xCFB0, size: 0x8, addend: 0x0, symName: __ZNSt11_Tuple_implILm0EJPFvRKNSt7__cxx1112basic_stringIcSt11char_traitsIcESaIcEEEiES5_iEEC2IRS8_JRS5_RiEvEEOT_DpOT0_, symObjAddr: 0x34A0, symBinAddr: 0x100006D18, symSize: 0x78 }
  - { offsetInCU: 0xCF9C, offset: 0xCF9C, size: 0x8, addend: 0x0, symName: __ZSt8_DestroyIP10ClientInfoEvT_S2_, symObjAddr: 0x3478, symBinAddr: 0x100006CF0, symSize: 0x28 }
  - { offsetInCU: 0xCFDE, offset: 0xCFDE, size: 0x8, addend: 0x0, symName: __ZSt12__niter_wrapIN9__gnu_cxx17__normal_iteratorIP10ClientInfoSt6vectorIS2_SaIS2_EEEES3_ET_S8_T0_, symObjAddr: 0x3424, symBinAddr: 0x100006C9C, symSize: 0x54 }
  - { offsetInCU: 0xD02B, offset: 0xD02B, size: 0x8, addend: 0x0, symName: __ZSt14__copy_move_a1ILb1EP10ClientInfoS1_ET1_T0_S3_S2_, symObjAddr: 0x33F8, symBinAddr: 0x100006C70, symSize: 0x2C }
  - { offsetInCU: 0xD093, offset: 0xD093, size: 0x8, addend: 0x0, symName: __ZSt12__niter_baseIP10ClientInfoSt6vectorIS0_SaIS0_EEET_N9__gnu_cxx17__normal_iteratorIS5_T0_EE, symObjAddr: 0x33D8, symBinAddr: 0x100006C50, symSize: 0x20 }
  - { offsetInCU: 0xD0CF, offset: 0xD0CF, size: 0x8, addend: 0x0, symName: __ZSt12__relocate_aIP10ClientInfoS1_SaIS0_EET0_T_S4_S3_RT1_, symObjAddr: 0x337C, symBinAddr: 0x100006BF4, symSize: 0x5C }
  - { offsetInCU: 0xD16F, offset: 0xD16F, size: 0x8, addend: 0x0, symName: __ZNKSt6vectorI10ClientInfoSaIS0_EE4sizeEv, symObjAddr: 0x3348, symBinAddr: 0x100006BC0, symSize: 0x34 }
  - { offsetInCU: 0xD199, offset: 0xD199, size: 0x8, addend: 0x0, symName: __ZNKSt6vectorI10ClientInfoSaIS0_EE8max_sizeEv, symObjAddr: 0x3328, symBinAddr: 0x100006BA0, symSize: 0x20 }
  - { offsetInCU: 0xD233, offset: 0xD233, size: 0x8, addend: 0x0, symName: __ZNSt5tupleIJPFviEiEEC1IRS0_RiLb1EEEOT_OT0_, symObjAddr: 0x32D8, symBinAddr: 0x100006B50, symSize: 0x50 }
  - { offsetInCU: 0xD255, offset: 0xD255, size: 0x8, addend: 0x0, symName: __ZNSt15__uniq_ptr_implINSt6thread6_StateESt14default_deleteIS1_EE10_M_deleterEv, symObjAddr: 0x32BC, symBinAddr: 0x100006B34, symSize: 0x1C }
  - { offsetInCU: 0xD281, offset: 0xD281, size: 0x8, addend: 0x0, symName: __ZSt3getILm0EJPNSt6thread6_StateESt14default_deleteIS1_EEERNSt13tuple_elementIXT_ESt5tupleIJDpT0_EEE4typeERS9_, symObjAddr: 0x32A0, symBinAddr: 0x100006B18, symSize: 0x1C }
  - { offsetInCU: 0xD331, offset: 0xD331, size: 0x8, addend: 0x0, symName: __ZNSt5tupleIJPNSt6thread6_StateESt14default_deleteIS1_EEEC1ILb1ELb1EEEv, symObjAddr: 0x3280, symBinAddr: 0x100006AF8, symSize: 0x20 }
  - { offsetInCU: 0xD3D5, offset: 0xD3D5, size: 0x8, addend: 0x0, symName: __ZNSt5tupleIJPFvRKNSt7__cxx1112basic_stringIcSt11char_traitsIcESaIcEEEiES5_iEEC1IJRS8_RS5_RiELb1ELb1EEEDpOT_, symObjAddr: 0x3214, symBinAddr: 0x100006A8C, symSize: 0x6C }
  - { offsetInCU: 0xD40A, offset: 0xD40A, size: 0x8, addend: 0x0, symName: __ZSt13__copy_move_aILb1EN9__gnu_cxx17__normal_iteratorIP10ClientInfoSt6vectorIS2_SaIS2_EEEES7_ET1_T0_S9_S8_, symObjAddr: 0x31B4, symBinAddr: 0x100006A2C, symSize: 0x60 }
  - { offsetInCU: 0xD472, offset: 0xD472, size: 0x8, addend: 0x0, symName: __ZSt12__miter_baseIN9__gnu_cxx17__normal_iteratorIP10ClientInfoSt6vectorIS2_SaIS2_EEEEET_S8_, symObjAddr: 0x31A0, symBinAddr: 0x100006A18, symSize: 0x14 }
  - { offsetInCU: 0xD4A5, offset: 0xD4A5, size: 0x8, addend: 0x0, symName: __ZSt9__find_ifIN9__gnu_cxx17__normal_iteratorIP10ClientInfoSt6vectorIS2_SaIS2_EEEENS0_5__ops10_Iter_predIZ13handle_clientiEUlRKS2_E_EEET_SE_SE_T0_St26random_access_iterator_tag, symObjAddr: 0x3004, symBinAddr: 0x10000687C, symSize: 0x19C }
  - { offsetInCU: 0xD53D, offset: 0xD53D, size: 0x8, addend: 0x0, symName: __ZNK9__gnu_cxx17__normal_iteratorIP10ClientInfoSt6vectorIS1_SaIS1_EEEmiEl, symObjAddr: 0x2FB4, symBinAddr: 0x10000682C, symSize: 0x50 }
  - { offsetInCU: 0xD578, offset: 0xD578, size: 0x8, addend: 0x0, symName: __ZNSt12_Vector_baseI10ClientInfoSaIS0_EE19_M_get_Tp_allocatorEv, symObjAddr: 0x2FA0, symBinAddr: 0x100006818, symSize: 0x14 }
  - { offsetInCU: 0xD59E, offset: 0xD59E, size: 0x8, addend: 0x0, symName: __ZNSt6vectorI10ClientInfoSaIS0_EE11_S_relocateEPS0_S3_S3_RS1_, symObjAddr: 0x2F6C, symBinAddr: 0x1000067E4, symSize: 0x34 }
  - { offsetInCU: 0xD5FB, offset: 0xD5FB, size: 0x8, addend: 0x0, symName: __ZSt12__to_addressI10ClientInfoEPT_S2_, symObjAddr: 0x2F58, symBinAddr: 0x1000067D0, symSize: 0x14 }
  - { offsetInCU: 0xD631, offset: 0xD631, size: 0x8, addend: 0x0, symName: __ZNSt12_Vector_baseI10ClientInfoSaIS0_EE11_M_allocateEm, symObjAddr: 0x2F08, symBinAddr: 0x100006780, symSize: 0x50 }
  - { offsetInCU: 0xD699, offset: 0xD699, size: 0x8, addend: 0x0, symName: __ZNKSt6vectorI10ClientInfoSaIS0_EE12_M_check_lenEmPKc, symObjAddr: 0x2E38, symBinAddr: 0x1000066B0, symSize: 0xD0 }
  - { offsetInCU: 0xD76C, offset: 0xD76C, size: 0x8, addend: 0x0, symName: __ZN10ClientInfoC1EOS_, symObjAddr: 0x2DF0, symBinAddr: 0x100006668, symSize: 0x48 }
  - { offsetInCU: 0xD789, offset: 0xD789, size: 0x8, addend: 0x0, symName: __ZNSt15__new_allocatorI10ClientInfoE10deallocateEPS0_m, symObjAddr: 0x2DB4, symBinAddr: 0x10000662C, symSize: 0x3C }
  - { offsetInCU: 0xD891, offset: 0xD891, size: 0x8, addend: 0x0, symName: __ZNSt6thread8_InvokerISt5tupleIJPFviEiEEEC1IJRS2_RiEEEDpOT_, symObjAddr: 0x2D64, symBinAddr: 0x1000065DC, symSize: 0x50 }
  - { offsetInCU: 0xD8A8, offset: 0xD8A8, size: 0x8, addend: 0x0, symName: __ZNKSt14default_deleteINSt6thread6_StateEEclEPS1_, symObjAddr: 0x2D2C, symBinAddr: 0x1000065A4, symSize: 0x38 }
  - { offsetInCU: 0xD8E5, offset: 0xD8E5, size: 0x8, addend: 0x0, symName: __ZSt4moveIRPNSt6thread6_StateEEONSt16remove_referenceIT_E4typeEOS5_, symObjAddr: 0x2D18, symBinAddr: 0x100006590, symSize: 0x14 }
  - { offsetInCU: 0xD91B, offset: 0xD91B, size: 0x8, addend: 0x0, symName: __ZNSt10unique_ptrINSt6thread6_StateESt14default_deleteIS1_EE11get_deleterEv, symObjAddr: 0x2CFC, symBinAddr: 0x100006574, symSize: 0x1C }
  - { offsetInCU: 0xD945, offset: 0xD945, size: 0x8, addend: 0x0, symName: __ZNSt15__uniq_ptr_implINSt6thread6_StateESt14default_deleteIS1_EE6_M_ptrEv, symObjAddr: 0x2CE0, symBinAddr: 0x100006558, symSize: 0x1C }
  - { offsetInCU: 0xD9DB, offset: 0xD9DB, size: 0x8, addend: 0x0, symName: __ZNSt15__uniq_ptr_implINSt6thread6_StateESt14default_deleteIS1_EEC2EPS1_, symObjAddr: 0x2CA4, symBinAddr: 0x10000651C, symSize: 0x3C }
  - { offsetInCU: 0xDA7F, offset: 0xDA7F, size: 0x8, addend: 0x0, symName: __ZNSt6thread8_InvokerISt5tupleIJPFvRKNSt7__cxx1112basic_stringIcSt11char_traitsIcESaIcEEEiES7_iEEEC1IJRSA_RS7_RiEEEDpOT_, symObjAddr: 0x2C38, symBinAddr: 0x1000064B0, symSize: 0x6C }
  - { offsetInCU: 0xDA63, offset: 0xDA63, size: 0x8, addend: 0x0, symName: __ZN9__gnu_cxxmiIP10ClientInfoSt6vectorIS1_SaIS1_EEEENS_17__normal_iteratorIT_T0_E15difference_typeERKS9_SC_, symObjAddr: 0x2BEC, symBinAddr: 0x100006464, symSize: 0x4C }
  - { offsetInCU: 0xDAB4, offset: 0xDAB4, size: 0x8, addend: 0x0, symName: __ZNSt6vectorI10ClientInfoSaIS0_EE15_M_erase_at_endEPS0_, symObjAddr: 0x2B58, symBinAddr: 0x1000063D0, symSize: 0x94 }
  - { offsetInCU: 0xDB45, offset: 0xDB45, size: 0x8, addend: 0x0, symName: __ZSt4moveIN9__gnu_cxx17__normal_iteratorIP10ClientInfoSt6vectorIS2_SaIS2_EEEES7_ET0_T_S9_S8_, symObjAddr: 0x2B10, symBinAddr: 0x100006388, symSize: 0x48 }
  - { offsetInCU: 0xDBA7, offset: 0xDBA7, size: 0x8, addend: 0x0, symName: __ZNK9__gnu_cxx17__normal_iteratorIPK10ClientInfoSt6vectorIS1_SaIS1_EEE4baseEv, symObjAddr: 0x2AFC, symBinAddr: 0x100006374, symSize: 0x14 }
  - { offsetInCU: 0xDC43, offset: 0xDC43, size: 0x8, addend: 0x0, symName: __ZN9__gnu_cxx17__normal_iteratorIPK10ClientInfoSt6vectorIS1_SaIS1_EEEC1ERKS3_, symObjAddr: 0x2AD4, symBinAddr: 0x10000634C, symSize: 0x28 }
  - { offsetInCU: 0xDC28, offset: 0xDC28, size: 0x8, addend: 0x0, symName: __ZN9__gnu_cxx5__ops10_Iter_predIZ13handle_clientiEUlRK10ClientInfoE_EclINS_17__normal_iteratorIPS2_St6vectorIS2_SaIS2_EEEEEEbT_, symObjAddr: 0x2A9C, symBinAddr: 0x100006314, symSize: 0x38 }
  - { offsetInCU: 0xDC68, offset: 0xDC68, size: 0x8, addend: 0x0, symName: __ZN9__gnu_cxxeqIP10ClientInfoSt6vectorIS1_SaIS1_EEEEbRKNS_17__normal_iteratorIT_T0_EESB_, symObjAddr: 0x2A58, symBinAddr: 0x1000062D0, symSize: 0x44 }
  - { offsetInCU: 0xDCB5, offset: 0xDCB5, size: 0x8, addend: 0x0, symName: __ZSt9__find_ifIN9__gnu_cxx17__normal_iteratorIP10ClientInfoSt6vectorIS2_SaIS2_EEEENS0_5__ops10_Iter_predIZ13handle_clientiEUlRKS2_E_EEET_SE_SE_T0_, symObjAddr: 0x2A28, symBinAddr: 0x1000062A0, symSize: 0x30 }
  - { offsetInCU: 0xDD5D, offset: 0xDD5D, size: 0x8, addend: 0x0, symName: __ZN9__gnu_cxx5__ops10_Iter_predIZ13handle_clientiEUlRK10ClientInfoE_EC1ES5_, symObjAddr: 0x29F4, symBinAddr: 0x10000626C, symSize: 0x34 }
  - { offsetInCU: 0xDD8E, offset: 0xDD8E, size: 0x8, addend: 0x0, symName: __ZSt4moveIRZ13handle_clientiEUlRK10ClientInfoE_EONSt16remove_referenceIT_E4typeEOS6_, symObjAddr: 0x29E0, symBinAddr: 0x100006258, symSize: 0x14 }
  - { offsetInCU: 0xDDC4, offset: 0xDDC4, size: 0x8, addend: 0x0, symName: __ZNSt6vectorI10ClientInfoSaIS0_EE4backEv, symObjAddr: 0x29A8, symBinAddr: 0x100006220, symSize: 0x38 }
  - { offsetInCU: 0xDDEE, offset: 0xDDEE, size: 0x8, addend: 0x0, symName: __ZNSt6vectorI10ClientInfoSaIS0_EE17_M_realloc_appendIJS0_EEEvDpOT_, symObjAddr: 0x27BC, symBinAddr: 0x100006034, symSize: 0x1EC }
  - { offsetInCU: 0xDFC7, offset: 0xDFC7, size: 0x8, addend: 0x0, symName: __ZZNSt6vectorI10ClientInfoSaIS0_EE17_M_realloc_appendIJS0_EEEvDpOT_EN6_GuardC1EPS0_mRS1_, symObjAddr: 0x2718, symBinAddr: 0x100005F90, symSize: 0x44 }
  - { offsetInCU: 0xE005, offset: 0xE005, size: 0x8, addend: 0x0, symName: __ZZNSt6vectorI10ClientInfoSaIS0_EE17_M_realloc_appendIJS0_EEEvDpOT_EN6_GuardD1Ev, symObjAddr: 0x275C, symBinAddr: 0x100005FD4, symSize: 0x60 }
  - { offsetInCU: 0xE0F0, offset: 0xE0F0, size: 0x8, addend: 0x0, symName: __ZSt7forwardI10ClientInfoEOT_RNSt16remove_referenceIS1_E4typeE, symObjAddr: 0x2704, symBinAddr: 0x100005F7C, symSize: 0x14 }
  - { offsetInCU: 0xE257, offset: 0xE257, size: 0x8, addend: 0x0, symName: __ZNSt6thread11_State_implINS_8_InvokerISt5tupleIJPFviEiEEEEEC1IJRS3_RiEEEDpOT_, symObjAddr: 0x2680, symBinAddr: 0x100005EF8, symSize: 0x84 }
  - { offsetInCU: 0xE260, offset: 0xE260, size: 0x8, addend: 0x0, symName: __ZSt7forwardIRFviEEOT_RNSt16remove_referenceIS2_E4typeE, symObjAddr: 0x266C, symBinAddr: 0x100005EE4, symSize: 0x14 }
  - { offsetInCU: 0xE308, offset: 0xE308, size: 0x8, addend: 0x0, symName: __ZNSt10unique_ptrINSt6thread6_StateESt14default_deleteIS1_EED1Ev, symObjAddr: 0x2604, symBinAddr: 0x100005E7C, symSize: 0x68 }
  - { offsetInCU: 0xE395, offset: 0xE395, size: 0x8, addend: 0x0, symName: __ZNSt10unique_ptrINSt6thread6_StateESt14default_deleteIS1_EEC1IS3_vEEPS1_, symObjAddr: 0x25DC, symBinAddr: 0x100005E54, symSize: 0x28 }
  - { offsetInCU: 0xE412, offset: 0xE412, size: 0x8, addend: 0x0, symName: __ZNSt15__uniq_ptr_dataINSt6thread6_StateESt14default_deleteIS1_ELb1ELb1EECI1St15__uniq_ptr_implIS1_S3_EEPS1_, symObjAddr: 0x25B4, symBinAddr: 0x100005E2C, symSize: 0x28 }
  - { offsetInCU: 0xE4A4, offset: 0xE4A4, size: 0x8, addend: 0x0, symName: __ZNSt6thread11_State_implINS_8_InvokerISt5tupleIJPFvRKNSt7__cxx1112basic_stringIcSt11char_traitsIcESaIcEEEiES8_iEEEEEC1IJRSB_RS8_RiEEEDpOT_, symObjAddr: 0x2514, symBinAddr: 0x100005D8C, symSize: 0xA0 }
  - { offsetInCU: 0xE503, offset: 0xE503, size: 0x8, addend: 0x0, symName: __ZNSt6thread8_InvokerISt5tupleIJPFvRKNSt7__cxx1112basic_stringIcSt11char_traitsIcESaIcEEEiES7_iEEED1Ev, symObjAddr: 0x24F4, symBinAddr: 0x100005D6C, symSize: 0x20 }
  - { offsetInCU: 0xE53D, offset: 0xE53D, size: 0x8, addend: 0x0, symName: __ZNSt5tupleIJPFvRKNSt7__cxx1112basic_stringIcSt11char_traitsIcESaIcEEEiES5_iEED1Ev, symObjAddr: 0x24D4, symBinAddr: 0x100005D4C, symSize: 0x20 }
  - { offsetInCU: 0xE596, offset: 0xE596, size: 0x8, addend: 0x0, symName: __ZNSt11_Tuple_implILm0EJPFvRKNSt7__cxx1112basic_stringIcSt11char_traitsIcESaIcEEEiES5_iEED2Ev, symObjAddr: 0x24B4, symBinAddr: 0x100005D2C, symSize: 0x20 }
  - { offsetInCU: 0xE5DA, offset: 0xE5DA, size: 0x8, addend: 0x0, symName: __ZNSt11_Tuple_implILm1EJNSt7__cxx1112basic_stringIcSt11char_traitsIcESaIcEEEiEED2Ev, symObjAddr: 0x2490, symBinAddr: 0x100005D08, symSize: 0x24 }
  - { offsetInCU: 0xE627, offset: 0xE627, size: 0x8, addend: 0x0, symName: __ZNSt10_Head_baseILm1ENSt7__cxx1112basic_stringIcSt11char_traitsIcESaIcEEELb0EED2Ev, symObjAddr: 0x2470, symBinAddr: 0x100005CE8, symSize: 0x20 }
  - { offsetInCU: 0xE62E, offset: 0xE62E, size: 0x8, addend: 0x0, symName: __ZNSt6thread6_StateC2Ev, symObjAddr: 0x2448, symBinAddr: 0x100005CC0, symSize: 0x28 }
  - { offsetInCU: 0xE642, offset: 0xE642, size: 0x8, addend: 0x0, symName: __ZSt7forwardIRiEOT_RNSt16remove_referenceIS1_E4typeE, symObjAddr: 0x2434, symBinAddr: 0x100005CAC, symSize: 0x14 }
  - { offsetInCU: 0xE67A, offset: 0xE67A, size: 0x8, addend: 0x0, symName: __ZSt7forwardIRNSt7__cxx1112basic_stringIcSt11char_traitsIcESaIcEEEEOT_RNSt16remove_referenceIS7_E4typeE, symObjAddr: 0x2420, symBinAddr: 0x100005C98, symSize: 0x14 }
  - { offsetInCU: 0xE6B6, offset: 0xE6B6, size: 0x8, addend: 0x0, symName: __ZSt7forwardIRFvRKNSt7__cxx1112basic_stringIcSt11char_traitsIcESaIcEEEiEEOT_RNSt16remove_referenceISA_E4typeE, symObjAddr: 0x240C, symBinAddr: 0x100005C84, symSize: 0x14 }
  - { offsetInCU: 0xE6EC, offset: 0xE6EC, size: 0x8, addend: 0x0, symName: __ZNSt6vectorI10ClientInfoSaIS0_EE8_M_eraseEN9__gnu_cxx17__normal_iteratorIPS0_S2_EES6_, symObjAddr: 0x2348, symBinAddr: 0x100005BC0, symSize: 0xC4 }
  - { offsetInCU: 0xE736, offset: 0xE736, size: 0x8, addend: 0x0, symName: __ZNK9__gnu_cxx17__normal_iteratorIP10ClientInfoSt6vectorIS1_SaIS1_EEEplEl, symObjAddr: 0x22FC, symBinAddr: 0x100005B74, symSize: 0x4C }
  - { offsetInCU: 0xE773, offset: 0xE773, size: 0x8, addend: 0x0, symName: __ZN9__gnu_cxxmiIPK10ClientInfoSt6vectorIS1_SaIS1_EEEENS_17__normal_iteratorIT_T0_E15difference_typeERKSA_SD_, symObjAddr: 0x22B0, symBinAddr: 0x100005B28, symSize: 0x4C }
  - { offsetInCU: 0xE7C4, offset: 0xE7C4, size: 0x8, addend: 0x0, symName: __ZNKSt6vectorI10ClientInfoSaIS0_EE6cbeginEv, symObjAddr: 0x228C, symBinAddr: 0x100005B04, symSize: 0x24 }
  - { offsetInCU: 0xE7EA, offset: 0xE7EA, size: 0x8, addend: 0x0, symName: __ZSt11__remove_ifIN9__gnu_cxx17__normal_iteratorIP10ClientInfoSt6vectorIS2_SaIS2_EEEENS0_5__ops10_Iter_predIZ13handle_clientiEUlRKS2_E_EEET_SE_SE_T0_, symObjAddr: 0x21B4, symBinAddr: 0x100005A2C, symSize: 0xD8 }
  - { offsetInCU: 0xE861, offset: 0xE861, size: 0x8, addend: 0x0, symName: __ZN10ClientInfoaSEOS_, symObjAddr: 0x2174, symBinAddr: 0x1000059EC, symSize: 0x40 }
  - { offsetInCU: 0xE88F, offset: 0xE88F, size: 0x8, addend: 0x0, symName: __ZN9__gnu_cxx5__ops11__pred_iterIZ13handle_clientiEUlRK10ClientInfoE_EENS0_10_Iter_predIT_EES7_, symObjAddr: 0x2144, symBinAddr: 0x1000059BC, symSize: 0x30 }
  - { offsetInCU: 0xE8C6, offset: 0xE8C6, size: 0x8, addend: 0x0, symName: __ZNK9__gnu_cxx17__normal_iteratorIP10ClientInfoSt6vectorIS1_SaIS1_EEE4baseEv, symObjAddr: 0x2130, symBinAddr: 0x1000059A8, symSize: 0x14 }
  - { offsetInCU: 0xE961, offset: 0xE961, size: 0x8, addend: 0x0, symName: __ZN9__gnu_cxx17__normal_iteratorIP10ClientInfoSt6vectorIS1_SaIS1_EEEC1ERKS2_, symObjAddr: 0x2108, symBinAddr: 0x100005980, symSize: 0x28 }
  - { offsetInCU: 0xE949, offset: 0xE949, size: 0x8, addend: 0x0, symName: __ZSt12__str_concatINSt7__cxx1112basic_stringIcSt11char_traitsIcESaIcEEEET_PKNS6_10value_typeENS6_9size_typeES9_SA_RKNS6_14allocator_typeE, symObjAddr: 0x2028, symBinAddr: 0x1000058A0, symSize: 0xE0 }
  - { offsetInCU: 0xEA9B, offset: 0xEA9B, size: 0x8, addend: 0x0, symName: __ZNSt6vectorI10ClientInfoSaIS0_EE12emplace_backIJS0_EEERS0_DpOT_, symObjAddr: 0x1F4C, symBinAddr: 0x1000057C4, symSize: 0xDC }
  - { offsetInCU: 0xEB4D, offset: 0xEB4D, size: 0x8, addend: 0x0, symName: __ZSt4moveIR10ClientInfoEONSt16remove_referenceIT_E4typeEOS3_, symObjAddr: 0x1F38, symBinAddr: 0x1000057B0, symSize: 0x14 }
  - { offsetInCU: 0xEB98, offset: 0xEB98, size: 0x8, addend: 0x0, symName: __ZNSt12_Vector_baseI10ClientInfoSaIS0_EE13_M_deallocateEPS0_m, symObjAddr: 0x1EE0, symBinAddr: 0x100005758, symSize: 0x58 }
  - { offsetInCU: 0xEC63, offset: 0xEC63, size: 0x8, addend: 0x0, symName: __ZNSt15__new_allocatorI10ClientInfoED2Ev, symObjAddr: 0x1ECC, symBinAddr: 0x100005744, symSize: 0x14 }
  - { offsetInCU: 0xECBA, offset: 0xECBA, size: 0x8, addend: 0x0, symName: __ZNSt12_Vector_baseI10ClientInfoSaIS0_EE17_Vector_impl_dataC2Ev, symObjAddr: 0x1EA0, symBinAddr: 0x100005718, symSize: 0x2C }
  - { offsetInCU: 0xECBD, offset: 0xECBD, size: 0x8, addend: 0x0, symName: __ZSt4moveIRNSt7__cxx1112basic_stringIcSt11char_traitsIcESaIcEEEEONSt16remove_referenceIT_E4typeEOS8_, symObjAddr: 0x1E8C, symBinAddr: 0x100005704, symSize: 0x14 }
  - { offsetInCU: 0xECF3, offset: 0xECF3, size: 0x8, addend: 0x0, symName: __ZNSt7__cxx1112basic_stringIcSt11char_traitsIcESaIcEE12_M_constructIPKcEEvT_S8_St20forward_iterator_tag, symObjAddr: 0x1D8C, symBinAddr: 0x100005604, symSize: 0x100 }
  - { offsetInCU: 0xEE70, offset: 0xEE70, size: 0x8, addend: 0x0, symName: __ZZNSt7__cxx1112basic_stringIcSt11char_traitsIcESaIcEE12_M_constructIPKcEEvT_S8_St20forward_iterator_tagEN6_GuardC1EPS4_, symObjAddr: 0x1D34, symBinAddr: 0x1000055AC, symSize: 0x24 }
  - { offsetInCU: 0xEEA1, offset: 0xEEA1, size: 0x8, addend: 0x0, symName: __ZZNSt7__cxx1112basic_stringIcSt11char_traitsIcESaIcEE12_M_constructIPKcEEvT_S8_St20forward_iterator_tagEN6_GuardD1Ev, symObjAddr: 0x1D58, symBinAddr: 0x1000055D0, symSize: 0x34 }
  - { offsetInCU: 0xEF48, offset: 0xEF48, size: 0x8, addend: 0x0, symName: __ZNSt15__new_allocatorIcED2Ev, symObjAddr: 0x1D20, symBinAddr: 0x100005598, symSize: 0x14 }
  - { offsetInCU: 0xEF83, offset: 0xEF83, size: 0x8, addend: 0x0, symName: __ZSt4moveIRZNSt7__cxx119to_stringEiEUlPcmE_EONSt16remove_referenceIT_E4typeEOS5_, symObjAddr: 0x1D0C, symBinAddr: 0x100005584, symSize: 0x14 }
  - { offsetInCU: 0xEFCB, offset: 0xEFCB, size: 0x8, addend: 0x0, symName: __ZN9__gnu_cxx11char_traitsIcE2eqERKcS3_, symObjAddr: 0x1CDC, symBinAddr: 0x100005554, symSize: 0x30 }
  - { offsetInCU: 0xF071, offset: 0xF071, size: 0x8, addend: 0x0, symName: __ZNSt6threadC1IRFviEJRiEvEEOT_DpOT0_, symObjAddr: 0x1C0C, symBinAddr: 0x100005484, symSize: 0xD0 }
  - { offsetInCU: 0xF15F, offset: 0xF15F, size: 0x8, addend: 0x0, symName: __ZNSt6threadC1IRFvRKNSt7__cxx1112basic_stringIcSt11char_traitsIcESaIcEEEiEJRS6_RiEvEEOT_DpOT0_, symObjAddr: 0x1B28, symBinAddr: 0x1000053A0, symSize: 0xE4 }
  - { offsetInCU: 0xF170, offset: 0xF170, size: 0x8, addend: 0x0, symName: __ZStplIcSt11char_traitsIcESaIcEENSt7__cxx1112basic_stringIT_T0_T1_EEOS8_S9_, symObjAddr: 0x1A40, symBinAddr: 0x1000052B8, symSize: 0xE8 }
  - { offsetInCU: 0xF1FB, offset: 0xF1FB, size: 0x8, addend: 0x0, symName: __ZStplIcSt11char_traitsIcESaIcEENSt7__cxx1112basic_stringIT_T0_T1_EEOS8_RKS8_, symObjAddr: 0x19FC, symBinAddr: 0x100005274, symSize: 0x44 }
  - { offsetInCU: 0xF2DE, offset: 0xF2DE, size: 0x8, addend: 0x0, symName: __ZNSt7__cxx1112basic_stringIcSt11char_traitsIcESaIcEEC1IS3_EEPKcRKS3_, symObjAddr: 0x1960, symBinAddr: 0x1000051D8, symSize: 0x9C }
  - { offsetInCU: 0xF301, offset: 0xF301, size: 0x8, addend: 0x0, symName: __ZNSt6vectorI10ClientInfoSaIS0_EE5eraseEN9__gnu_cxx17__normal_iteratorIPKS0_S2_EES7_, symObjAddr: 0x18E0, symBinAddr: 0x100005158, symSize: 0x80 }
  - { offsetInCU: 0xF3FA, offset: 0xF3FA, size: 0x8, addend: 0x0, symName: __ZN9__gnu_cxx17__normal_iteratorIPK10ClientInfoSt6vectorIS1_SaIS1_EEEC1IPS1_vEERKNS0_IT_S6_EE, symObjAddr: 0x18B0, symBinAddr: 0x100005128, symSize: 0x30 }
  - { offsetInCU: 0xF3D4, offset: 0xF3D4, size: 0x8, addend: 0x0, symName: __ZSt9remove_ifIN9__gnu_cxx17__normal_iteratorIP10ClientInfoSt6vectorIS2_SaIS2_EEEEZ13handle_clientiEUlRKS2_E_ET_SB_SB_T0_, symObjAddr: 0x187C, symBinAddr: 0x1000050F4, symSize: 0x34 }
  - { offsetInCU: 0xF436, offset: 0xF436, size: 0x8, addend: 0x0, symName: __ZNK9__gnu_cxx17__normal_iteratorIP10ClientInfoSt6vectorIS1_SaIS1_EEEdeEv, symObjAddr: 0x1864, symBinAddr: 0x1000050DC, symSize: 0x18 }
  - { offsetInCU: 0xF460, offset: 0xF460, size: 0x8, addend: 0x0, symName: __ZN9__gnu_cxx17__normal_iteratorIP10ClientInfoSt6vectorIS1_SaIS1_EEEppEv, symObjAddr: 0x183C, symBinAddr: 0x1000050B4, symSize: 0x28 }
  - { offsetInCU: 0xF486, offset: 0xF486, size: 0x8, addend: 0x0, symName: __ZN9__gnu_cxxneIP10ClientInfoSt6vectorIS1_SaIS1_EEEEbRKNS_17__normal_iteratorIT_T0_EESB_, symObjAddr: 0x17F8, symBinAddr: 0x100005070, symSize: 0x44 }
  - { offsetInCU: 0xF4D7, offset: 0xF4D7, size: 0x8, addend: 0x0, symName: __ZNSt6vectorI10ClientInfoSaIS0_EE3endEv, symObjAddr: 0x17D0, symBinAddr: 0x100005048, symSize: 0x28 }
  - { offsetInCU: 0xF501, offset: 0xF501, size: 0x8, addend: 0x0, symName: __ZNSt6vectorI10ClientInfoSaIS0_EE5beginEv, symObjAddr: 0x17AC, symBinAddr: 0x100005024, symSize: 0x24 }
  - { offsetInCU: 0xF527, offset: 0xF527, size: 0x8, addend: 0x0, symName: __ZStplIcSt11char_traitsIcESaIcEENSt7__cxx1112basic_stringIT_T0_T1_EEOS8_PKS5_, symObjAddr: 0x1768, symBinAddr: 0x100004FE0, symSize: 0x44 }
  - { offsetInCU: 0xF57D, offset: 0xF57D, size: 0x8, addend: 0x0, symName: __ZStplIcSt11char_traitsIcESaIcEENSt7__cxx1112basic_stringIT_T0_T1_EEPKS5_RKS8_, symObjAddr: 0x16B8, symBinAddr: 0x100004F30, symSize: 0xB0 }
  - { offsetInCU: 0xF619, offset: 0xF619, size: 0x8, addend: 0x0, symName: __ZNSt6vectorI10ClientInfoSaIS0_EE9push_backEOS0_, symObjAddr: 0x1688, symBinAddr: 0x100004F00, symSize: 0x30 }
  - { offsetInCU: 0xF6A1, offset: 0xF6A1, size: 0x8, addend: 0x0, symName: __ZNSt12_Vector_baseI10ClientInfoSaIS0_EED2Ev, symObjAddr: 0x162C, symBinAddr: 0x100004EA4, symSize: 0x5C }
  - { offsetInCU: 0xF70F, offset: 0xF70F, size: 0x8, addend: 0x0, symName: __ZNSt12_Vector_baseI10ClientInfoSaIS0_EE12_Vector_implC1Ev, symObjAddr: 0x15F4, symBinAddr: 0x100004E6C, symSize: 0x38 }
  - { offsetInCU: 0xF746, offset: 0xF746, size: 0x8, addend: 0x0, symName: __ZSt7forwardIiEOT_RNSt16remove_referenceIS0_E4typeE, symObjAddr: 0x15E0, symBinAddr: 0x100004E58, symSize: 0x14 }
  - { offsetInCU: 0xF778, offset: 0xF778, size: 0x8, addend: 0x0, symName: __ZSt3maxImERKT_S2_S2_, symObjAddr: 0x15A8, symBinAddr: 0x100004E20, symSize: 0x38 }
  - { offsetInCU: 0xF800, offset: 0xF800, size: 0x8, addend: 0x0, symName: __ZNSt10lock_guardISt5mutexED1Ev, symObjAddr: 0x1584, symBinAddr: 0x100004DFC, symSize: 0x24 }
  - { offsetInCU: 0xF850, offset: 0xF850, size: 0x8, addend: 0x0, symName: __ZNSt10lock_guardISt5mutexEC1ERS0_, symObjAddr: 0x1550, symBinAddr: 0x100004DC8, symSize: 0x34 }
  - { offsetInCU: 0xF896, offset: 0xF896, size: 0x8, addend: 0x0, symName: __ZNSt7__cxx1112basic_stringIcSt11char_traitsIcESaIcEE22__resize_and_overwriteIZNS_9to_stringEiEUlPcmE_EEvmT_, symObjAddr: 0x14C0, symBinAddr: 0x100004D38, symSize: 0x90 }
  - { offsetInCU: 0xFA0C, offset: 0xFA0C, size: 0x8, addend: 0x0, symName: __ZZNSt7__cxx1112basic_stringIcSt11char_traitsIcESaIcEE22__resize_and_overwriteIZNS_9to_stringEiEUlPcmE_EEvmT_EN11_TerminatorD1Ev, symObjAddr: 0x148C, symBinAddr: 0x100004D04, symSize: 0x34 }
  - { offsetInCU: 0xF9D4, offset: 0xF9D4, size: 0x8, addend: 0x0, symName: __ZNSt8__detail18__to_chars_10_implIjEEvPcjT_, symObjAddr: 0x12D8, symBinAddr: 0x100004B50, symSize: 0x1B4 }
  - { offsetInCU: 0xFB0B, offset: 0xFB0B, size: 0x8, addend: 0x0, symName: __ZNSt7__cxx1112basic_stringIcSt11char_traitsIcESaIcEE12_Alloc_hiderD1Ev, symObjAddr: 0x12AC, symBinAddr: 0x100004B24, symSize: 0x2C }
  - { offsetInCU: 0xFB2D, offset: 0xFB2D, size: 0x8, addend: 0x0, symName: __ZN9__gnu_cxx6__stoaIlicJiEEET0_PFT_PKT1_PPS3_DpT2_EPKcS5_PmS9_, symObjAddr: 0x11A8, symBinAddr: 0x100004A20, symSize: 0x104 }
  - { offsetInCU: 0xFCBB, offset: 0xFCBB, size: 0x8, addend: 0x0, symName: __ZZN9__gnu_cxx6__stoaIlicJiEEET0_PFT_PKT1_PPS3_DpT2_EPKcS5_PmS9_EN11_Save_errnoC1Ev, symObjAddr: 0x10E8, symBinAddr: 0x100004960, symSize: 0x30 }
  - { offsetInCU: 0xFCE6, offset: 0xFCE6, size: 0x8, addend: 0x0, symName: __ZZN9__gnu_cxx6__stoaIlicJiEEET0_PFT_PKT1_PPS3_DpT2_EPKcS5_PmS9_EN11_Save_errnoD1Ev, symObjAddr: 0x1118, symBinAddr: 0x100004990, symSize: 0x50 }
  - { offsetInCU: 0xFD6B, offset: 0xFD6B, size: 0x8, addend: 0x0, symName: __ZZN9__gnu_cxx6__stoaIlicJiEEET0_PFT_PKT1_PPS3_DpT2_EPKcS5_PmS9_EN10_Range_chk6_S_chkElSt17integral_constantIbLb1EE, symObjAddr: 0x1168, symBinAddr: 0x1000049E0, symSize: 0x40 }
  - { offsetInCU: 0xFD3B, offset: 0xFD3B, size: 0x8, addend: 0x0, symName: __ZN9__gnu_cxx11char_traitsIcE6lengthEPKc, symObjAddr: 0x1090, symBinAddr: 0x100004908, symSize: 0x58 }
  - { offsetInCU: 0xFD7D, offset: 0xFD7D, size: 0x8, addend: 0x0, symName: _main, symObjAddr: 0xC94, symBinAddr: 0x10000450C, symSize: 0x3FC }
  - { offsetInCU: 0xFFA7, offset: 0xFFA7, size: 0x8, addend: 0x0, symName: __Z16broadcast_serverRKNSt7__cxx1112basic_stringIcSt11char_traitsIcESaIcEEEi, symObjAddr: 0xA60, symBinAddr: 0x1000042D8, symSize: 0x234 }
  - { offsetInCU: 0x1000A, offset: 0x1000A, size: 0x8, addend: 0x0, symName: __Z12get_local_ipB5cxx11v, symObjAddr: 0x95C, symBinAddr: 0x1000041D4, symSize: 0x104 }
  - { offsetInCU: 0x10158, offset: 0x10158, size: 0x8, addend: 0x0, symName: __Z13handle_clienti, symObjAddr: 0x558, symBinAddr: 0x100003DD0, symSize: 0x404 }
  - { offsetInCU: 0x102AD, offset: 0x102AD, size: 0x8, addend: 0x0, symName: __ZZ13handle_clientiENKUlRK10ClientInfoE_clES1_, symObjAddr: 0x528, symBinAddr: 0x100003DA0, symSize: 0x30 }
  - { offsetInCU: 0x10340, offset: 0x10340, size: 0x8, addend: 0x0, symName: __ZN10ClientInfoD1Ev, symObjAddr: 0x504, symBinAddr: 0x100003D7C, symSize: 0x24 }
  - { offsetInCU: 0x10375, offset: 0x10375, size: 0x8, addend: 0x0, symName: __Z14signal_handleri, symObjAddr: 0x4E4, symBinAddr: 0x100003D5C, symSize: 0x20 }
  - { offsetInCU: 0x103C2, offset: 0x103C2, size: 0x8, addend: 0x0, symName: __ZNSt6vectorI10ClientInfoSaIS0_EEC1Ev, symObjAddr: 0x4C4, symBinAddr: 0x100003D3C, symSize: 0x20 }
  - { offsetInCU: 0x10409, offset: 0x10409, size: 0x8, addend: 0x0, symName: __ZNSt12_Vector_baseI10ClientInfoSaIS0_EEC2Ev, symObjAddr: 0x4A4, symBinAddr: 0x100003D1C, symSize: 0x20 }
  - { offsetInCU: 0x10464, offset: 0x10464, size: 0x8, addend: 0x0, symName: __ZNSt12_Vector_baseI10ClientInfoSaIS0_EE12_Vector_implD1Ev, symObjAddr: 0x478, symBinAddr: 0x100003CF0, symSize: 0x2C }
  - { offsetInCU: 0x10472, offset: 0x10472, size: 0x8, addend: 0x0, symName: __ZSt3minImERKT_S2_S2_, symObjAddr: 0x440, symBinAddr: 0x100003CB8, symSize: 0x38 }
  - { offsetInCU: 0x104B8, offset: 0x104B8, size: 0x8, addend: 0x0, symName: __ZNSt5mutex6unlockEv, symObjAddr: 0x420, symBinAddr: 0x100003C98, symSize: 0x20 }
  - { offsetInCU: 0x104E2, offset: 0x104E2, size: 0x8, addend: 0x0, symName: __ZNSt5mutex4lockEv, symObjAddr: 0x3E8, symBinAddr: 0x100003C60, symSize: 0x38 }
  - { offsetInCU: 0x10518, offset: 0x10518, size: 0x8, addend: 0x0, symName: __ZSteqNSt6thread2idES0_, symObjAddr: 0x3C0, symBinAddr: 0x100003C38, symSize: 0x28 }
  - { offsetInCU: 0x10557, offset: 0x10557, size: 0x8, addend: 0x0, symName: __ZNKSt6thread8joinableEv, symObjAddr: 0x38C, symBinAddr: 0x100003C04, symSize: 0x34 }
  - { offsetInCU: 0x105B2, offset: 0x105B2, size: 0x8, addend: 0x0, symName: __ZNSt6threadD1Ev, symObjAddr: 0x35C, symBinAddr: 0x100003BD4, symSize: 0x30 }
  - { offsetInCU: 0x105E1, offset: 0x105E1, size: 0x8, addend: 0x0, symName: __ZNSt6thread24_M_thread_deps_never_runEv, symObjAddr: 0x354, symBinAddr: 0x100003BCC, symSize: 0x8 }
  - { offsetInCU: 0x10626, offset: 0x10626, size: 0x8, addend: 0x0, symName: __ZNSt6thread2idC1Ev, symObjAddr: 0x338, symBinAddr: 0x100003BB0, symSize: 0x1C }
  - { offsetInCU: 0x10638, offset: 0x10638, size: 0x8, addend: 0x0, symName: __ZNSt8__detail14__to_chars_lenIjEEjT_i, symObjAddr: 0x260, symBinAddr: 0x100003AD8, symSize: 0xD8 }
  - { offsetInCU: 0x106BA, offset: 0x106BA, size: 0x8, addend: 0x0, symName: __ZNSt7__cxx119to_stringEi, symObjAddr: 0x1B4, symBinAddr: 0x100003A2C, symSize: 0xAC }
  - { offsetInCU: 0x1077B, offset: 0x1077B, size: 0x8, addend: 0x0, symName: __ZZNSt7__cxx119to_stringEiENKUlPcmE_clES0_m, symObjAddr: 0x158, symBinAddr: 0x1000039D0, symSize: 0x5C }
  - { offsetInCU: 0x107FE, offset: 0x107FE, size: 0x8, addend: 0x0, symName: __ZNSt7__cxx114stoiERKNS_12basic_stringIcSt11char_traitsIcESaIcEEEPmi, symObjAddr: 0x114, symBinAddr: 0x10000398C, symSize: 0x44 }
  - { offsetInCU: 0x1085B, offset: 0x1085B, size: 0x8, addend: 0x0, symName: __ZL12_OSSwapInt16t, symObjAddr: 0xDC, symBinAddr: 0x100003954, symSize: 0x38 }
  - { offsetInCU: 0x10896, offset: 0x10896, size: 0x8, addend: 0x0, symName: __ZL22__gthread_mutex_unlockP23_opaque_pthread_mutex_t, symObjAddr: 0x9C, symBinAddr: 0x100003914, symSize: 0x40 }
  - { offsetInCU: 0x108C6, offset: 0x108C6, size: 0x8, addend: 0x0, symName: __ZL20__gthread_mutex_lockP23_opaque_pthread_mutex_t, symObjAddr: 0x5C, symBinAddr: 0x1000038D4, symSize: 0x40 }
  - { offsetInCU: 0x108F6, offset: 0x108F6, size: 0x8, addend: 0x0, symName: __ZL18__gthread_active_pv, symObjAddr: 0x54, symBinAddr: 0x1000038CC, symSize: 0x8 }
  - { offsetInCU: 0x108FE, offset: 0x108FE, size: 0x8, addend: 0x0, symName: __ZNSt11char_traitsIcE6lengthEPKc, symObjAddr: 0x18, symBinAddr: 0x100003890, symSize: 0x3C }
  - { offsetInCU: 0x10952, offset: 0x10952, size: 0x8, addend: 0x0, symName: __ZnwmPv, symObjAddr: 0x0, symBinAddr: 0x100003878, symSize: 0x18 }
...
